; Listing generated by Microsoft (R) Optimizing Compiler Version 19.16.27032.1 

	TITLE	C:\Users\unm\Documents\GitHub\caCode\src\failSafeC\GeneratedFiles\Release\moc_qLEDs.cpp
	.686P
	.XMM
	include listing.inc
	.model	flat

INCLUDELIB MSVCRT
INCLUDELIB OLDNAMES

EXTRN	__imp_?staticMetaObject@QWidget@@2UQMetaObject@@B:BYTE
CONST	SEGMENT
?qt_meta_stringdata_qOneLED@@3Uqt_meta_stringdata_qOneLED_t@@B DD 0ffffffffH ; qt_meta_stringdata_qOneLED
	DD	07H
	DD	00H
	DD	060H
	DD	0ffffffffH
	DD	0cH
	DD	00H
	DD	058H
	DD	0ffffffffH
	DD	00H
	DD	00H
	DD	055H
	DD	0ffffffffH
	DD	07H
	DD	00H
	DD	046H
	DD	0ffffffffH
	DD	06H
	DD	00H
	DD	03eH
	DD	0ffffffffH
	DD	02H
	DD	00H
	DD	035H
	DB	071H
	DB	04fH
	DB	06eH
	DB	065H
	DB	04cH
	DB	045H
	DB	044H
	DB	00H
	DB	076H
	DB	061H
	DB	06cH
	DB	075H
	DB	065H
	DB	043H
	DB	068H
	DB	061H
	DB	06eH
	DB	067H
	DB	065H
	DB	064H
	DB	00H
	DB	00H
	DB	074H
	DB	075H
	DB	072H
	DB	06eH
	DB	04fH
	DB	066H
	DB	066H
	DB	00H
	DB	074H
	DB	075H
	DB	072H
	DB	06eH
	DB	04fH
	DB	06eH
	DB	00H
	DB	06fH
	DB	06eH
	DB	00H
?qt_meta_data_qOneLED@@3QBIB DD 08H			; qt_meta_data_qOneLED
	DD	00H
	DD	00H
	DD	00H
	DD	03H
	DD	0eH
	DD	01H
	DD	020H
	DD	00H
	DD	00H
	DD	00H
	DD	00H
	DD	00H
	DD	01H
	DD	01H
	DD	00H
	DD	01dH
	DD	02H
	DD	06H
	DD	03H
	DD	00H
	DD	01eH
	DD	02H
	DD	0aH
	DD	04H
	DD	00H
	DD	01fH
	DD	02H
	DD	0aH
	DD	02bH
	DD	02bH
	DD	02bH
	DD	05H
	DD	01H
	DD	095103H
	DD	00H
CONST	ENDS
PUBLIC	?metaObject@qOneLED@@UBEPBUQMetaObject@@XZ	; qOneLED::metaObject
PUBLIC	?qt_metacast@qOneLED@@UAEPAXPBD@Z		; qOneLED::qt_metacast
PUBLIC	?qt_metacall@qOneLED@@UAEHW4Call@QMetaObject@@HPAPAX@Z ; qOneLED::qt_metacall
PUBLIC	?qt_static_metacall@qOneLED@@CAXPAVQObject@@W4Call@QMetaObject@@HPAPAX@Z ; qOneLED::qt_static_metacall
PUBLIC	?setOn@qOneLED@@QAEX_N@Z			; qOneLED::setOn
PUBLIC	?valueChanged@qOneLED@@QAEXXZ			; qOneLED::valueChanged
PUBLIC	?staticMetaObject@qOneLED@@2UQMetaObject@@B	; qOneLED::staticMetaObject
EXTRN	__imp_?activate@QMetaObject@@SAXPAVQObject@@PBU1@HPAPAX@Z:PROC
EXTRN	__imp_?dynamicMetaObject@QObjectData@@QBEPAUQMetaObject@@XZ:PROC
EXTRN	__imp_?qt_metacast@QWidget@@UAEPAXPBD@Z:PROC
EXTRN	__imp_?qt_metacall@QWidget@@UAEHW4Call@QMetaObject@@HPAPAX@Z:PROC
EXTRN	__imp_?update@QWidget@@QAEXXZ:PROC
CRT$XCU	SEGMENT
??staticMetaObject$initializer$@qOneLED@@2P6AXXZA@@3P6AXXZA DD FLAT:??__E?staticMetaObject@qOneLED@@2UQMetaObject@@B@@YAXXZ ; ??staticMetaObject$initializer$@qOneLED@@2P6AXXZA@@3P6AXXZA
CRT$XCU	ENDS
_DATA	SEGMENT
?staticMetaObject@qOneLED@@2UQMetaObject@@B DB 4 DUP(00H) ; qOneLED::staticMetaObject
	DD	FLAT:?qt_meta_stringdata_qOneLED@@3Uqt_meta_stringdata_qOneLED_t@@B
	DD	FLAT:?qt_meta_data_qOneLED@@3QBIB
	DD	FLAT:?qt_static_metacall@qOneLED@@CAXPAVQObject@@W4Call@QMetaObject@@HPAPAX@Z
	DD	00H
	DD	00H
_DATA	ENDS
; Function compile flags: /Ogtp
;	COMDAT ??__E?staticMetaObject@qOneLED@@2UQMetaObject@@B@@YAXXZ
text$di	SEGMENT
??__E?staticMetaObject@qOneLED@@2UQMetaObject@@B@@YAXXZ PROC ; `dynamic initializer for 'qOneLED::staticMetaObject'', COMDAT
; File c:\users\unm\documents\github\cacode\src\failsafec\generatedfiles\release\moc_qleds.cpp
; Line 126
	mov	eax, DWORD PTR __imp_?staticMetaObject@QWidget@@2UQMetaObject@@B
	mov	DWORD PTR ?staticMetaObject@qOneLED@@2UQMetaObject@@B, eax
; Line 131
	ret	0
??__E?staticMetaObject@qOneLED@@2UQMetaObject@@B@@YAXXZ ENDP ; `dynamic initializer for 'qOneLED::staticMetaObject''
text$di	ENDS
; Function compile flags: /Ogtp
;	COMDAT ?valueChanged@qOneLED@@QAEXXZ
_TEXT	SEGMENT
?valueChanged@qOneLED@@QAEXXZ PROC			; qOneLED::valueChanged, COMDAT
; _this$ = ecx
; File c:\users\unm\documents\github\cacode\src\failsafec\generatedfiles\release\moc_qleds.cpp
; Line 185
	push	0
	push	0
	push	OFFSET ?staticMetaObject@qOneLED@@2UQMetaObject@@B ; qOneLED::staticMetaObject
	push	ecx
	call	DWORD PTR __imp_?activate@QMetaObject@@SAXPAVQObject@@PBU1@HPAPAX@Z
	add	esp, 16					; 00000010H
; Line 186
	ret	0
?valueChanged@qOneLED@@QAEXXZ ENDP			; qOneLED::valueChanged
_TEXT	ENDS
; Function compile flags: /Ogtp
;	COMDAT ?turnOn@qOneLED@@QAEXXZ
_TEXT	SEGMENT
?turnOn@qOneLED@@QAEXXZ PROC				; qOneLED::turnOn, COMDAT
; _this$ = ecx
; File c:\users\unm\documents\github\cacode\src\failsafec\qleds.h
; Line 36
	push	esi
	mov	esi, ecx
; Line 25
	cmp	BYTE PTR [esi+24], 1
	je	SHORT $LN3@turnOn
; File c:\users\unm\documents\github\cacode\src\failsafec\generatedfiles\release\moc_qleds.cpp
; Line 185
	push	0
	push	0
	push	OFFSET ?staticMetaObject@qOneLED@@2UQMetaObject@@B ; qOneLED::staticMetaObject
	push	esi
	call	DWORD PTR __imp_?activate@QMetaObject@@SAXPAVQObject@@PBU1@HPAPAX@Z
	add	esp, 16					; 00000010H
; File c:\users\unm\documents\github\cacode\src\failsafec\qleds.h
; Line 30
	mov	BYTE PTR [esi+24], 1
; Line 31
	mov	ecx, esi
	pop	esi
	jmp	DWORD PTR __imp_?update@QWidget@@QAEXXZ
$LN3@turnOn:
	pop	esi
; Line 36
	ret	0
?turnOn@qOneLED@@QAEXXZ ENDP				; qOneLED::turnOn
_TEXT	ENDS
; Function compile flags: /Ogtp
;	COMDAT ?turnOff@qOneLED@@QAEXXZ
_TEXT	SEGMENT
?turnOff@qOneLED@@QAEXXZ PROC				; qOneLED::turnOff, COMDAT
; _this$ = ecx
; File c:\users\unm\documents\github\cacode\src\failsafec\qleds.h
; Line 35
	push	esi
	mov	esi, ecx
; Line 25
	cmp	BYTE PTR [esi+24], 0
	je	SHORT $LN3@turnOff
; File c:\users\unm\documents\github\cacode\src\failsafec\generatedfiles\release\moc_qleds.cpp
; Line 185
	push	0
	push	0
	push	OFFSET ?staticMetaObject@qOneLED@@2UQMetaObject@@B ; qOneLED::staticMetaObject
	push	esi
	call	DWORD PTR __imp_?activate@QMetaObject@@SAXPAVQObject@@PBU1@HPAPAX@Z
	add	esp, 16					; 00000010H
; File c:\users\unm\documents\github\cacode\src\failsafec\qleds.h
; Line 30
	mov	BYTE PTR [esi+24], 0
; Line 31
	mov	ecx, esi
	pop	esi
	jmp	DWORD PTR __imp_?update@QWidget@@QAEXXZ
$LN3@turnOff:
	pop	esi
; Line 35
	ret	0
?turnOff@qOneLED@@QAEXXZ ENDP				; qOneLED::turnOff
_TEXT	ENDS
; Function compile flags: /Ogtp
;	COMDAT ?setOn@qOneLED@@QAEX_N@Z
_TEXT	SEGMENT
_on$ = 8						; size = 1
?setOn@qOneLED@@QAEX_N@Z PROC				; qOneLED::setOn, COMDAT
; _this$ = ecx
; File c:\users\unm\documents\github\cacode\src\failsafec\qleds.h
; Line 24
	push	ebp
	mov	ebp, esp
	push	ebx
; Line 25
	mov	bl, BYTE PTR _on$[ebp]
	push	esi
	mov	esi, ecx
	cmp	bl, BYTE PTR [esi+24]
	je	SHORT $LN1@setOn
; File c:\users\unm\documents\github\cacode\src\failsafec\generatedfiles\release\moc_qleds.cpp
; Line 185
	push	0
	push	0
	push	OFFSET ?staticMetaObject@qOneLED@@2UQMetaObject@@B ; qOneLED::staticMetaObject
	push	esi
	call	DWORD PTR __imp_?activate@QMetaObject@@SAXPAVQObject@@PBU1@HPAPAX@Z
	add	esp, 16					; 00000010H
; File c:\users\unm\documents\github\cacode\src\failsafec\qleds.h
; Line 30
	mov	BYTE PTR [esi+24], bl
; Line 31
	mov	ecx, esi
	call	DWORD PTR __imp_?update@QWidget@@QAEXXZ
$LN1@setOn:
; Line 32
	pop	esi
	pop	ebx
	pop	ebp
	ret	4
?setOn@qOneLED@@QAEX_N@Z ENDP				; qOneLED::setOn
_TEXT	ENDS
; Function compile flags: /Ogtp
;	COMDAT ?getOn@qOneLED@@QBE_NXZ
_TEXT	SEGMENT
?getOn@qOneLED@@QBE_NXZ PROC				; qOneLED::getOn, COMDAT
; _this$ = ecx
; File c:\users\unm\documents\github\cacode\src\failsafec\qleds.h
; Line 21
	mov	al, BYTE PTR [ecx+24]
; Line 22
	ret	0
?getOn@qOneLED@@QBE_NXZ ENDP				; qOneLED::getOn
_TEXT	ENDS
; Function compile flags: /Ogtp
;	COMDAT ?qt_static_metacall@qOneLED@@CAXPAVQObject@@W4Call@QMetaObject@@HPAPAX@Z
_TEXT	SEGMENT
__o$ = 8						; size = 4
__c$ = 12						; size = 4
__id$ = 16						; size = 4
__a$ = 20						; size = 4
?qt_static_metacall@qOneLED@@CAXPAVQObject@@W4Call@QMetaObject@@HPAPAX@Z PROC ; qOneLED::qt_static_metacall, COMDAT
; File c:\users\unm\documents\github\cacode\src\failsafec\generatedfiles\release\moc_qleds.cpp
; Line 82
	push	ebp
	mov	ebp, esp
; Line 83
	mov	eax, DWORD PTR __c$[ebp]
	test	eax, eax
	jne	$LN8@qt_static_
; Line 86
	mov	eax, DWORD PTR __id$[ebp]
	sub	eax, 0
	je	SHORT $LN10@qt_static_
	push	esi
	sub	eax, 1
	je	SHORT $LN11@qt_static_
	sub	eax, 1
	jne	$LN51@qt_static_
; File c:\users\unm\documents\github\cacode\src\failsafec\qleds.h
; Line 25
	mov	esi, DWORD PTR __o$[ebp]
	cmp	BYTE PTR [esi+24], 1
	je	$LN51@qt_static_
; File c:\users\unm\documents\github\cacode\src\failsafec\generatedfiles\release\moc_qleds.cpp
; Line 185
	push	eax
	push	eax
	push	OFFSET ?staticMetaObject@qOneLED@@2UQMetaObject@@B ; qOneLED::staticMetaObject
	push	esi
	call	DWORD PTR __imp_?activate@QMetaObject@@SAXPAVQObject@@PBU1@HPAPAX@Z
	add	esp, 16					; 00000010H
; File c:\users\unm\documents\github\cacode\src\failsafec\qleds.h
; Line 30
	mov	BYTE PTR [esi+24], 1
; Line 31
	mov	ecx, esi
	pop	esi
; File c:\users\unm\documents\github\cacode\src\failsafec\generatedfiles\release\moc_qleds.cpp
; Line 123
	pop	ebp
; File c:\users\unm\documents\github\cacode\src\failsafec\qleds.h
; Line 31
	jmp	DWORD PTR __imp_?update@QWidget@@QAEXXZ
$LN11@qt_static_:
; Line 25
	mov	esi, DWORD PTR __o$[ebp]
	cmp	BYTE PTR [esi+24], 0
	je	$LN51@qt_static_
; File c:\users\unm\documents\github\cacode\src\failsafec\generatedfiles\release\moc_qleds.cpp
; Line 185
	push	0
	push	0
	push	OFFSET ?staticMetaObject@qOneLED@@2UQMetaObject@@B ; qOneLED::staticMetaObject
	push	esi
	call	DWORD PTR __imp_?activate@QMetaObject@@SAXPAVQObject@@PBU1@HPAPAX@Z
	add	esp, 16					; 00000010H
; File c:\users\unm\documents\github\cacode\src\failsafec\qleds.h
; Line 30
	mov	BYTE PTR [esi+24], 0
; Line 31
	mov	ecx, esi
	pop	esi
; File c:\users\unm\documents\github\cacode\src\failsafec\generatedfiles\release\moc_qleds.cpp
; Line 123
	pop	ebp
; File c:\users\unm\documents\github\cacode\src\failsafec\qleds.h
; Line 31
	jmp	DWORD PTR __imp_?update@QWidget@@QAEXXZ
$LN10@qt_static_:
; File c:\users\unm\documents\github\cacode\src\failsafec\generatedfiles\release\moc_qleds.cpp
; Line 185
	mov	DWORD PTR __a$[ebp], 0
	mov	DWORD PTR __id$[ebp], 0
	mov	DWORD PTR __c$[ebp], OFFSET ?staticMetaObject@qOneLED@@2UQMetaObject@@B ; qOneLED::staticMetaObject
; Line 123
	pop	ebp
; Line 185
	jmp	DWORD PTR __imp_?activate@QMetaObject@@SAXPAVQObject@@PBU1@HPAPAX@Z
$LN8@qt_static_:
; Line 92
	cmp	eax, 10					; 0000000aH
	jne	SHORT $LN14@qt_static_
; Line 93
	mov	eax, DWORD PTR __a$[ebp]
	mov	edx, DWORD PTR [eax]
; Line 96
	mov	eax, DWORD PTR [eax+4]
	mov	ecx, DWORD PTR [eax]
	cmp	ecx, OFFSET ?valueChanged@qOneLED@@QAEXXZ ; qOneLED::valueChanged
	jne	SHORT $LN24@qt_static_
	test	ecx, ecx
	je	SHORT $LN50@qt_static_
	cmp	DWORD PTR [eax+4], 0
	jne	SHORT $LN24@qt_static_
$LN50@qt_static_:
; Line 97
	mov	DWORD PTR [edx], 0
; Line 123
	pop	ebp
	ret	0
$LN14@qt_static_:
; Line 103
	cmp	eax, 1
	jne	SHORT $LN17@qt_static_
; Line 107
	cmp	DWORD PTR __id$[ebp], 0
	jne	SHORT $LN24@qt_static_
; Line 106
	mov	eax, DWORD PTR __a$[ebp]
	mov	ecx, DWORD PTR [eax]
; Line 108
	mov	eax, DWORD PTR __o$[ebp]
	mov	al, BYTE PTR [eax+24]
	mov	BYTE PTR [ecx], al
; Line 123
	pop	ebp
	ret	0
$LN17@qt_static_:
; Line 111
	cmp	eax, 2
	jne	SHORT $LN24@qt_static_
; Line 115
	cmp	DWORD PTR __id$[ebp], 0
	jne	SHORT $LN24@qt_static_
; Line 116
	mov	eax, DWORD PTR __a$[ebp]
	mov	ecx, DWORD PTR __o$[ebp]
	mov	eax, DWORD PTR [eax]
	movzx	eax, BYTE PTR [eax]
	push	eax
	call	?setOn@qOneLED@@QAEX_N@Z		; qOneLED::setOn
; Line 123
	pop	ebp
	ret	0
$LN51@qt_static_:
	pop	esi
$LN24@qt_static_:
	pop	ebp
	ret	0
?qt_static_metacall@qOneLED@@CAXPAVQObject@@W4Call@QMetaObject@@HPAPAX@Z ENDP ; qOneLED::qt_static_metacall
_TEXT	ENDS
; Function compile flags: /Ogtp
;	COMDAT ?qt_metacall@qOneLED@@UAEHW4Call@QMetaObject@@HPAPAX@Z
_TEXT	SEGMENT
_this$1$ = -4						; size = 4
__c$ = 8						; size = 4
__id$ = 12						; size = 4
__a$ = 16						; size = 4
?qt_metacall@qOneLED@@UAEHW4Call@QMetaObject@@HPAPAX@Z PROC ; qOneLED::qt_metacall, COMDAT
; _this$ = ecx
; File c:\users\unm\documents\github\cacode\src\failsafec\generatedfiles\release\moc_qleds.cpp
; Line 149
	push	ebp
	mov	ebp, esp
	push	ecx
	push	ebx
; Line 150
	mov	ebx, DWORD PTR __a$[ebp]
	mov	eax, ecx
	push	esi
	push	edi
	mov	edi, DWORD PTR __c$[ebp]
	push	ebx
	push	DWORD PTR __id$[ebp]
	mov	DWORD PTR _this$1$[ebp], eax
	push	edi
	call	DWORD PTR __imp_?qt_metacall@QWidget@@UAEHW4Call@QMetaObject@@HPAPAX@Z
	mov	esi, eax
; Line 151
	test	esi, esi
	js	$LN1@qt_metacal
; Line 153
	test	edi, edi
	jne	SHORT $LN3@qt_metacal
; Line 154
	cmp	esi, 3
	jge	SHORT $LN5@qt_metacal
; Line 155
	push	ebx
	push	esi
	push	edi
	push	DWORD PTR _this$1$[ebp]
	call	?qt_static_metacall@qOneLED@@CAXPAVQObject@@W4Call@QMetaObject@@HPAPAX@Z ; qOneLED::qt_static_metacall
	add	esp, 16					; 00000010H
$LN5@qt_metacal:
; Line 156
	sub	esi, 3
	pop	edi
; Line 179
	mov	eax, esi
; Line 180
	pop	esi
	pop	ebx
	mov	esp, ebp
	pop	ebp
	ret	12					; 0000000cH
$LN3@qt_metacal:
; Line 157
	cmp	edi, 12					; 0000000cH
	jne	SHORT $LN6@qt_metacal
; Line 158
	cmp	esi, 3
	jge	SHORT $LN8@qt_metacal
; Line 159
	mov	eax, DWORD PTR [ebx]
	mov	DWORD PTR [eax], -1
$LN8@qt_metacal:
; Line 160
	sub	esi, 3
	pop	edi
; Line 179
	mov	eax, esi
; Line 180
	pop	esi
	pop	ebx
	mov	esp, ebp
	pop	ebp
	ret	12					; 0000000cH
$LN6@qt_metacal:
; Line 164
	cmp	edi, 1
	je	SHORT $LN11@qt_metacal
	cmp	edi, 2
	je	SHORT $LN11@qt_metacal
	cmp	edi, 3
	je	SHORT $LN11@qt_metacal
	cmp	edi, 11					; 0000000bH
	je	SHORT $LN11@qt_metacal
; Line 167
	cmp	edi, 4
	je	SHORT $LN22@qt_metacal
; Line 169
	cmp	edi, 5
	je	SHORT $LN22@qt_metacal
; Line 171
	cmp	edi, 6
	je	SHORT $LN22@qt_metacal
; Line 173
	cmp	edi, 7
	je	SHORT $LN22@qt_metacal
; Line 175
	cmp	edi, 8
	jne	SHORT $LN20@qt_metacal
; Line 179
	dec	esi
	pop	edi
	mov	eax, esi
; Line 180
	pop	esi
	pop	ebx
	mov	esp, ebp
	pop	ebp
	ret	12					; 0000000cH
$LN11@qt_metacal:
; Line 165
	push	ebx
	push	esi
	push	edi
	push	DWORD PTR _this$1$[ebp]
	call	?qt_static_metacall@qOneLED@@CAXPAVQObject@@W4Call@QMetaObject@@HPAPAX@Z ; qOneLED::qt_static_metacall
	add	esp, 16					; 00000010H
$LN22@qt_metacal:
; Line 179
	dec	esi
$LN20@qt_metacal:
	mov	eax, esi
$LN1@qt_metacal:
	pop	edi
; Line 180
	pop	esi
	pop	ebx
	mov	esp, ebp
	pop	ebp
	ret	12					; 0000000cH
?qt_metacall@qOneLED@@UAEHW4Call@QMetaObject@@HPAPAX@Z ENDP ; qOneLED::qt_metacall
_TEXT	ENDS
; Function compile flags: /Ogtp
;	COMDAT ?qt_metacast@qOneLED@@UAEPAXPBD@Z
_TEXT	SEGMENT
__clname$ = 8						; size = 4
?qt_metacast@qOneLED@@UAEPAXPBD@Z PROC			; qOneLED::qt_metacast, COMDAT
; _this$ = ecx
; File c:\users\unm\documents\github\cacode\src\failsafec\generatedfiles\release\moc_qleds.cpp
; Line 141
	push	ebp
	mov	ebp, esp
	push	esi
; Line 142
	mov	esi, DWORD PTR __clname$[ebp]
	push	edi
	mov	edi, ecx
	test	esi, esi
	jne	SHORT $LN2@qt_metacas
	pop	edi
	xor	eax, eax
; Line 146
	pop	esi
	pop	ebp
	ret	4
$LN2@qt_metacas:
; Line 143
	mov	eax, OFFSET ?qt_meta_stringdata_qOneLED@@3Uqt_meta_stringdata_qOneLED_t@@B+96
	mov	ecx, esi
	npad	3
$LL5@qt_metacas:
	mov	dl, BYTE PTR [ecx]
	cmp	dl, BYTE PTR [eax]
	jne	SHORT $LN6@qt_metacas
	test	dl, dl
	je	SHORT $LN7@qt_metacas
	mov	dl, BYTE PTR [ecx+1]
	cmp	dl, BYTE PTR [eax+1]
	jne	SHORT $LN6@qt_metacas
	add	ecx, 2
	add	eax, 2
	test	dl, dl
	jne	SHORT $LL5@qt_metacas
$LN7@qt_metacas:
	xor	eax, eax
	jmp	SHORT $LN8@qt_metacas
$LN6@qt_metacas:
	sbb	eax, eax
	or	eax, 1
$LN8@qt_metacas:
	test	eax, eax
	jne	SHORT $LN3@qt_metacas
; Line 144
	mov	eax, edi
	pop	edi
; Line 146
	pop	esi
	pop	ebp
	ret	4
$LN3@qt_metacas:
; Line 145
	push	esi
	mov	ecx, edi
	call	DWORD PTR __imp_?qt_metacast@QWidget@@UAEPAXPBD@Z
	pop	edi
; Line 146
	pop	esi
	pop	ebp
	ret	4
?qt_metacast@qOneLED@@UAEPAXPBD@Z ENDP			; qOneLED::qt_metacast
_TEXT	ENDS
; Function compile flags: /Ogtp
;	COMDAT ?metaObject@qOneLED@@UBEPBUQMetaObject@@XZ
_TEXT	SEGMENT
?metaObject@qOneLED@@UBEPBUQMetaObject@@XZ PROC		; qOneLED::metaObject, COMDAT
; _this$ = ecx
; File c:\users\unm\documents\github\cacode\src\failsafec\generatedfiles\release\moc_qleds.cpp
; Line 137
	mov	ecx, DWORD PTR [ecx+4]
	cmp	DWORD PTR [ecx+24], 0
	je	SHORT $LN3@metaObject
	jmp	DWORD PTR __imp_?dynamicMetaObject@QObjectData@@QBEPAUQMetaObject@@XZ
$LN3@metaObject:
	mov	eax, OFFSET ?staticMetaObject@qOneLED@@2UQMetaObject@@B ; qOneLED::staticMetaObject
; Line 138
	ret	0
?metaObject@qOneLED@@UBEPBUQMetaObject@@XZ ENDP		; qOneLED::metaObject
_TEXT	ENDS
; Function compile flags: /Ogtp
;	COMDAT ??C?$QScopedPointer@VQObjectData@@U?$QScopedPointerDeleter@VQObjectData@@@@@@QBEPAVQObjectData@@XZ
_TEXT	SEGMENT
??C?$QScopedPointer@VQObjectData@@U?$QScopedPointerDeleter@VQObjectData@@@@@@QBEPAVQObjectData@@XZ PROC ; QScopedPointer<QObjectData,QScopedPointerDeleter<QObjectData> >::operator->, COMDAT
; _this$ = ecx
; File c:\qt\5.13.1\msvc2017\include\qtcore\qscopedpointer.h
; Line 118
	mov	eax, DWORD PTR [ecx]
; Line 119
	ret	0
??C?$QScopedPointer@VQObjectData@@U?$QScopedPointerDeleter@VQObjectData@@@@@@QBEPAVQObjectData@@XZ ENDP ; QScopedPointer<QObjectData,QScopedPointerDeleter<QObjectData> >::operator->
_TEXT	ENDS
END
