; Listing generated by Microsoft (R) Optimizing Compiler Version 19.16.27032.1 

	TITLE	C:\Users\unm\Documents\GitHub\caCode\src\failSafeC\GeneratedFiles\Release\moc_qAIProducerThread.cpp
	.686P
	.XMM
	include listing.inc
	.model	flat

INCLUDELIB MSVCRT
INCLUDELIB OLDNAMES

EXTRN	__imp_?staticMetaObject@QThread@@2UQMetaObject@@B:BYTE
CONST	SEGMENT
?qt_meta_stringdata_qAIProducerThread@@3Uqt_meta_stringdata_qAIProducerThread_t@@B DD 0ffffffffH ; qt_meta_stringdata_qAIProducerThread
	DD	011H
	DD	00H
	DD	080H
	DD	0ffffffffH
	DD	0dH
	DD	00H
	DD	082H
	DD	0ffffffffH
	DD	00H
	DD	00H
	DD	080H
	DD	0ffffffffH
	DD	08H
	DD	00H
	DD	071H
	DD	0ffffffffH
	DD	08H
	DD	00H
	DD	06aH
	DD	0ffffffffH
	DD	03H
	DD	00H
	DD	063H
	DD	0ffffffffH
	DD	08H
	DD	00H
	DD	057H
	DD	0ffffffffH
	DD	0cH
	DD	00H
	DD	050H
	DB	071H
	DB	041H
	DB	049H
	DB	050H
	DB	072H
	DB	06fH
	DB	064H
	DB	075H
	DB	063H
	DB	065H
	DB	072H
	DB	054H
	DB	068H
	DB	072H
	DB	065H
	DB	061H
	DB	064H
	DB	00H
	DB	074H
	DB	068H
	DB	072H
	DB	065H
	DB	061H
	DB	064H
	DB	053H
	DB	074H
	DB	061H
	DB	072H
	DB	074H
	DB	065H
	DB	064H
	DB	00H
	DB	00H
	DB	044H
	DB	041H
	DB	051H
	DB	045H
	DB	072H
	DB	072H
	DB	06fH
	DB	072H
	DB	00H
	DB	065H
	DB	072H
	DB	072H
	DB	06fH
	DB	072H
	DB	04dH
	DB	073H
	DB	067H
	DB	00H
	DB	06dH
	DB	073H
	DB	067H
	DB	00H
	DB	072H
	DB	065H
	DB	073H
	DB	070H
	DB	06fH
	DB	06eH
	DB	073H
	DB	065H
	DB	00H
	DB	063H
	DB	06cH
	DB	065H
	DB	061H
	DB	072H
	DB	044H
	DB	041H
	DB	051H
	DB	054H
	DB	061H
	DB	073H
	DB	06bH
	DB	00H
	ORG $+3
?qt_meta_data_qAIProducerThread@@3QBIB DD 08H		; qt_meta_data_qAIProducerThread
	DD	00H
	DD	00H
	DD	00H
	DD	05H
	DD	0eH
	DD	00H
	DD	00H
	DD	00H
	DD	00H
	DD	00H
	DD	00H
	DD	00H
	DD	04H
	DD	01H
	DD	00H
	DD	027H
	DD	02H
	DD	06H
	DD	03H
	DD	00H
	DD	028H
	DD	02H
	DD	06H
	DD	04H
	DD	01H
	DD	029H
	DD	02H
	DD	06H
	DD	06H
	DD	01H
	DD	02cH
	DD	02H
	DD	06H
	DD	07H
	DD	00H
	DD	02fH
	DD	02H
	DD	08H
	DD	02bH
	DD	02bH
	DD	02bH
	DD	0aH
	DD	05H
	DD	02bH
	DD	0aH
	DD	05H
	DD	02bH
	DD	00H
CONST	ENDS
PUBLIC	?metaObject@qAIProducerThread@@UBEPBUQMetaObject@@XZ ; qAIProducerThread::metaObject
PUBLIC	?qt_metacast@qAIProducerThread@@UAEPAXPBD@Z	; qAIProducerThread::qt_metacast
PUBLIC	?qt_metacall@qAIProducerThread@@UAEHW4Call@QMetaObject@@HPAPAX@Z ; qAIProducerThread::qt_metacall
PUBLIC	?qt_static_metacall@qAIProducerThread@@CAXPAVQObject@@W4Call@QMetaObject@@HPAPAX@Z ; qAIProducerThread::qt_static_metacall
PUBLIC	?threadStarted@qAIProducerThread@@QAEXXZ	; qAIProducerThread::threadStarted
PUBLIC	?DAQError@qAIProducerThread@@QAEXXZ		; qAIProducerThread::DAQError
PUBLIC	?errorMsg@qAIProducerThread@@QAEXABVQString@@@Z	; qAIProducerThread::errorMsg
PUBLIC	?response@qAIProducerThread@@QAEXABVQString@@@Z	; qAIProducerThread::response
PUBLIC	?staticMetaObject@qAIProducerThread@@2UQMetaObject@@B ; qAIProducerThread::staticMetaObject
EXTRN	__imp_?activate@QMetaObject@@SAXPAVQObject@@PBU1@HPAPAX@Z:PROC
EXTRN	__imp_?dynamicMetaObject@QObjectData@@QBEPAUQMetaObject@@XZ:PROC
EXTRN	__imp_?qt_metacast@QThread@@UAEPAXPBD@Z:PROC
EXTRN	__imp_?qt_metacall@QThread@@UAEHW4Call@QMetaObject@@HPAPAX@Z:PROC
EXTRN	?clearDAQTask@qAIProducerThread@@AAEXXZ:PROC	; qAIProducerThread::clearDAQTask
CRT$XCU	SEGMENT
??staticMetaObject$initializer$@qAIProducerThread@@2P6AXXZA@@3P6AXXZA DD FLAT:??__E?staticMetaObject@qAIProducerThread@@2UQMetaObject@@B@@YAXXZ ; ??staticMetaObject$initializer$@qAIProducerThread@@2P6AXXZA@@3P6AXXZA
CRT$XCU	ENDS
_DATA	SEGMENT
?staticMetaObject@qAIProducerThread@@2UQMetaObject@@B DB 4 DUP(00H) ; qAIProducerThread::staticMetaObject
	DD	FLAT:?qt_meta_stringdata_qAIProducerThread@@3Uqt_meta_stringdata_qAIProducerThread_t@@B
	DD	FLAT:?qt_meta_data_qAIProducerThread@@3QBIB
	DD	FLAT:?qt_static_metacall@qAIProducerThread@@CAXPAVQObject@@W4Call@QMetaObject@@HPAPAX@Z
	DD	00H
	DD	00H
_DATA	ENDS
; Function compile flags: /Ogtp
;	COMDAT ??$addressof@$$CBVQString@@@std@@YAPBVQString@@ABV1@@Z
_TEXT	SEGMENT
__Val$ = 8						; size = 4
??$addressof@$$CBVQString@@@std@@YAPBVQString@@ABV1@@Z PROC ; std::addressof<QString const >, COMDAT
; File c:\program files (x86)\microsoft visual studio\2017\community\vc\tools\msvc\14.16.27023\include\xstddef
; Line 329
	push	ebp
	mov	ebp, esp
; Line 330
	mov	eax, DWORD PTR __Val$[ebp]
; Line 331
	pop	ebp
	ret	0
??$addressof@$$CBVQString@@@std@@YAPBVQString@@ABV1@@Z ENDP ; std::addressof<QString const >
_TEXT	ENDS
; Function compile flags: /Ogtp
;	COMDAT ??__E?staticMetaObject@qAIProducerThread@@2UQMetaObject@@B@@YAXXZ
text$di	SEGMENT
??__E?staticMetaObject@qAIProducerThread@@2UQMetaObject@@B@@YAXXZ PROC ; `dynamic initializer for 'qAIProducerThread::staticMetaObject'', COMDAT
; File c:\users\unm\documents\github\cacode\src\failsafec\generatedfiles\release\moc_qaiproducerthread.cpp
; Line 132
	mov	eax, DWORD PTR __imp_?staticMetaObject@QThread@@2UQMetaObject@@B
	mov	DWORD PTR ?staticMetaObject@qAIProducerThread@@2UQMetaObject@@B, eax
; Line 137
	ret	0
??__E?staticMetaObject@qAIProducerThread@@2UQMetaObject@@B@@YAXXZ ENDP ; `dynamic initializer for 'qAIProducerThread::staticMetaObject''
text$di	ENDS
; Function compile flags: /Ogtp
;	COMDAT ?response@qAIProducerThread@@QAEXABVQString@@@Z
_TEXT	SEGMENT
__a$ = -8						; size = 8
__t1$ = 8						; size = 4
?response@qAIProducerThread@@QAEXABVQString@@@Z PROC	; qAIProducerThread::response, COMDAT
; _this$ = ecx
; File c:\users\unm\documents\github\cacode\src\failsafec\generatedfiles\release\moc_qaiproducerthread.cpp
; Line 192
	push	ebp
	mov	ebp, esp
	sub	esp, 8
; File c:\program files (x86)\microsoft visual studio\2017\community\vc\tools\msvc\14.16.27023\include\xstddef
; Line 330
	mov	eax, DWORD PTR __t1$[ebp]
	mov	DWORD PTR __a$[ebp+4], eax
; File c:\users\unm\documents\github\cacode\src\failsafec\generatedfiles\release\moc_qaiproducerthread.cpp
; Line 194
	lea	eax, DWORD PTR __a$[ebp]
	push	eax
	push	3
	push	OFFSET ?staticMetaObject@qAIProducerThread@@2UQMetaObject@@B ; qAIProducerThread::staticMetaObject
	push	ecx
	mov	DWORD PTR __a$[ebp], 0
	call	DWORD PTR __imp_?activate@QMetaObject@@SAXPAVQObject@@PBU1@HPAPAX@Z
	add	esp, 16					; 00000010H
; Line 195
	mov	esp, ebp
	pop	ebp
	ret	4
?response@qAIProducerThread@@QAEXABVQString@@@Z ENDP	; qAIProducerThread::response
_TEXT	ENDS
; Function compile flags: /Ogtp
;	COMDAT ?errorMsg@qAIProducerThread@@QAEXABVQString@@@Z
_TEXT	SEGMENT
__a$ = -8						; size = 8
__t1$ = 8						; size = 4
?errorMsg@qAIProducerThread@@QAEXABVQString@@@Z PROC	; qAIProducerThread::errorMsg, COMDAT
; _this$ = ecx
; File c:\users\unm\documents\github\cacode\src\failsafec\generatedfiles\release\moc_qaiproducerthread.cpp
; Line 185
	push	ebp
	mov	ebp, esp
	sub	esp, 8
; File c:\program files (x86)\microsoft visual studio\2017\community\vc\tools\msvc\14.16.27023\include\xstddef
; Line 330
	mov	eax, DWORD PTR __t1$[ebp]
	mov	DWORD PTR __a$[ebp+4], eax
; File c:\users\unm\documents\github\cacode\src\failsafec\generatedfiles\release\moc_qaiproducerthread.cpp
; Line 187
	lea	eax, DWORD PTR __a$[ebp]
	push	eax
	push	2
	push	OFFSET ?staticMetaObject@qAIProducerThread@@2UQMetaObject@@B ; qAIProducerThread::staticMetaObject
	push	ecx
	mov	DWORD PTR __a$[ebp], 0
	call	DWORD PTR __imp_?activate@QMetaObject@@SAXPAVQObject@@PBU1@HPAPAX@Z
	add	esp, 16					; 00000010H
; Line 188
	mov	esp, ebp
	pop	ebp
	ret	4
?errorMsg@qAIProducerThread@@QAEXABVQString@@@Z ENDP	; qAIProducerThread::errorMsg
_TEXT	ENDS
; Function compile flags: /Ogtp
;	COMDAT ?DAQError@qAIProducerThread@@QAEXXZ
_TEXT	SEGMENT
?DAQError@qAIProducerThread@@QAEXXZ PROC		; qAIProducerThread::DAQError, COMDAT
; _this$ = ecx
; File c:\users\unm\documents\github\cacode\src\failsafec\generatedfiles\release\moc_qaiproducerthread.cpp
; Line 180
	push	0
	push	1
	push	OFFSET ?staticMetaObject@qAIProducerThread@@2UQMetaObject@@B ; qAIProducerThread::staticMetaObject
	push	ecx
	call	DWORD PTR __imp_?activate@QMetaObject@@SAXPAVQObject@@PBU1@HPAPAX@Z
	add	esp, 16					; 00000010H
; Line 181
	ret	0
?DAQError@qAIProducerThread@@QAEXXZ ENDP		; qAIProducerThread::DAQError
_TEXT	ENDS
; Function compile flags: /Ogtp
;	COMDAT ?threadStarted@qAIProducerThread@@QAEXXZ
_TEXT	SEGMENT
?threadStarted@qAIProducerThread@@QAEXXZ PROC		; qAIProducerThread::threadStarted, COMDAT
; _this$ = ecx
; File c:\users\unm\documents\github\cacode\src\failsafec\generatedfiles\release\moc_qaiproducerthread.cpp
; Line 174
	push	0
	push	0
	push	OFFSET ?staticMetaObject@qAIProducerThread@@2UQMetaObject@@B ; qAIProducerThread::staticMetaObject
	push	ecx
	call	DWORD PTR __imp_?activate@QMetaObject@@SAXPAVQObject@@PBU1@HPAPAX@Z
	add	esp, 16					; 00000010H
; Line 175
	ret	0
?threadStarted@qAIProducerThread@@QAEXXZ ENDP		; qAIProducerThread::threadStarted
_TEXT	ENDS
; Function compile flags: /Ogtp
;	COMDAT ?qt_static_metacall@qAIProducerThread@@CAXPAVQObject@@W4Call@QMetaObject@@HPAPAX@Z
_TEXT	SEGMENT
__o$ = 8						; size = 4
__c$ = 12						; size = 4
__id$ = 16						; size = 4
__a$ = 20						; size = 4
?qt_static_metacall@qAIProducerThread@@CAXPAVQObject@@W4Call@QMetaObject@@HPAPAX@Z PROC ; qAIProducerThread::qt_static_metacall, COMDAT
; File c:\users\unm\documents\github\cacode\src\failsafec\generatedfiles\release\moc_qaiproducerthread.cpp
; Line 86
	push	ebp
	mov	ebp, esp
; Line 87
	mov	eax, DWORD PTR __c$[ebp]
	test	eax, eax
	jne	SHORT $LN4@qt_static_
; Line 90
	mov	eax, DWORD PTR __id$[ebp]
	cmp	eax, 4
	ja	$LN16@qt_static_
	jmp	DWORD PTR $LN25@qt_static_[eax*4]
$LN6@qt_static_:
; Line 174
	mov	DWORD PTR __a$[ebp], 0
	mov	DWORD PTR __id$[ebp], 0
	mov	DWORD PTR __c$[ebp], OFFSET ?staticMetaObject@qAIProducerThread@@2UQMetaObject@@B ; qAIProducerThread::staticMetaObject
; Line 129
	pop	ebp
; Line 174
	jmp	DWORD PTR __imp_?activate@QMetaObject@@SAXPAVQObject@@PBU1@HPAPAX@Z
$LN7@qt_static_:
; Line 180
	mov	DWORD PTR __a$[ebp], 0
	mov	DWORD PTR __id$[ebp], 1
	mov	DWORD PTR __c$[ebp], OFFSET ?staticMetaObject@qAIProducerThread@@2UQMetaObject@@B ; qAIProducerThread::staticMetaObject
; Line 129
	pop	ebp
; Line 180
	jmp	DWORD PTR __imp_?activate@QMetaObject@@SAXPAVQObject@@PBU1@HPAPAX@Z
$LN8@qt_static_:
; Line 93
	mov	eax, DWORD PTR __a$[ebp]
	mov	ecx, DWORD PTR __o$[ebp]
	push	DWORD PTR [eax+4]
	call	?errorMsg@qAIProducerThread@@QAEXABVQString@@@Z ; qAIProducerThread::errorMsg
; Line 129
	pop	ebp
	ret	0
$LN9@qt_static_:
; Line 94
	mov	eax, DWORD PTR __a$[ebp]
	mov	ecx, DWORD PTR __o$[ebp]
	push	DWORD PTR [eax+4]
	call	?response@qAIProducerThread@@QAEXABVQString@@@Z ; qAIProducerThread::response
; Line 129
	pop	ebp
	ret	0
$LN10@qt_static_:
; Line 95
	mov	ecx, DWORD PTR __o$[ebp]
; Line 129
	pop	ebp
; Line 95
	jmp	?clearDAQTask@qAIProducerThread@@AAEXXZ	; qAIProducerThread::clearDAQTask
$LN4@qt_static_:
; Line 98
	cmp	eax, 10					; 0000000aH
	jne	SHORT $LN16@qt_static_
; Line 99
	mov	eax, DWORD PTR __a$[ebp]
	mov	ecx, DWORD PTR [eax]
; Line 102
	mov	eax, DWORD PTR [eax+4]
	mov	eax, DWORD PTR [eax]
	cmp	eax, OFFSET ?threadStarted@qAIProducerThread@@QAEXXZ ; qAIProducerThread::threadStarted
	jne	SHORT $LN13@qt_static_
; Line 103
	mov	DWORD PTR [ecx], 0
; Line 129
	pop	ebp
	ret	0
$LN13@qt_static_:
; Line 109
	cmp	eax, OFFSET ?DAQError@qAIProducerThread@@QAEXXZ ; qAIProducerThread::DAQError
	jne	SHORT $LN14@qt_static_
; Line 110
	mov	DWORD PTR [ecx], 1
; Line 129
	pop	ebp
	ret	0
$LN14@qt_static_:
; Line 116
	cmp	eax, OFFSET ?errorMsg@qAIProducerThread@@QAEXABVQString@@@Z ; qAIProducerThread::errorMsg
	jne	SHORT $LN15@qt_static_
; Line 117
	mov	DWORD PTR [ecx], 2
; Line 129
	pop	ebp
	ret	0
$LN15@qt_static_:
; Line 123
	cmp	eax, OFFSET ?response@qAIProducerThread@@QAEXABVQString@@@Z ; qAIProducerThread::response
	jne	SHORT $LN16@qt_static_
; Line 124
	mov	DWORD PTR [ecx], 3
$LN16@qt_static_:
; Line 129
	pop	ebp
	ret	0
	npad	3
$LN25@qt_static_:
	DD	$LN6@qt_static_
	DD	$LN7@qt_static_
	DD	$LN8@qt_static_
	DD	$LN9@qt_static_
	DD	$LN10@qt_static_
?qt_static_metacall@qAIProducerThread@@CAXPAVQObject@@W4Call@QMetaObject@@HPAPAX@Z ENDP ; qAIProducerThread::qt_static_metacall
_TEXT	ENDS
; Function compile flags: /Ogtp
;	COMDAT ?qt_metacall@qAIProducerThread@@UAEHW4Call@QMetaObject@@HPAPAX@Z
_TEXT	SEGMENT
_this$1$ = -4						; size = 4
__c$ = 8						; size = 4
__id$ = 12						; size = 4
__a$ = 16						; size = 4
?qt_metacall@qAIProducerThread@@UAEHW4Call@QMetaObject@@HPAPAX@Z PROC ; qAIProducerThread::qt_metacall, COMDAT
; _this$ = ecx
; File c:\users\unm\documents\github\cacode\src\failsafec\generatedfiles\release\moc_qaiproducerthread.cpp
; Line 155
	push	ebp
	mov	ebp, esp
	push	ecx
	push	ebx
; Line 156
	mov	ebx, DWORD PTR __a$[ebp]
	mov	eax, ecx
	push	esi
	push	edi
	mov	edi, DWORD PTR __c$[ebp]
	push	ebx
	push	DWORD PTR __id$[ebp]
	mov	DWORD PTR _this$1$[ebp], eax
	push	edi
	call	DWORD PTR __imp_?qt_metacall@QThread@@UAEHW4Call@QMetaObject@@HPAPAX@Z
	mov	esi, eax
; Line 157
	test	esi, esi
	js	SHORT $LN1@qt_metacal
; Line 159
	test	edi, edi
	jne	SHORT $LN3@qt_metacal
; Line 160
	cmp	esi, 5
	jge	SHORT $LN7@qt_metacal
; Line 161
	push	ebx
	push	esi
	push	edi
	push	DWORD PTR _this$1$[ebp]
	call	?qt_static_metacall@qAIProducerThread@@CAXPAVQObject@@W4Call@QMetaObject@@HPAPAX@Z ; qAIProducerThread::qt_static_metacall
	add	esp, 16					; 00000010H
; Line 168
	sub	esi, 5
	mov	eax, esi
	pop	edi
; Line 169
	pop	esi
	pop	ebx
	mov	esp, ebp
	pop	ebp
	ret	12					; 0000000cH
$LN3@qt_metacal:
; Line 163
	cmp	edi, 12					; 0000000cH
	jne	SHORT $LN6@qt_metacal
; Line 164
	cmp	esi, 5
	jge	SHORT $LN7@qt_metacal
; Line 165
	mov	eax, DWORD PTR [ebx]
	mov	DWORD PTR [eax], -1
$LN7@qt_metacal:
; Line 168
	sub	esi, 5
$LN6@qt_metacal:
	mov	eax, esi
$LN1@qt_metacal:
	pop	edi
; Line 169
	pop	esi
	pop	ebx
	mov	esp, ebp
	pop	ebp
	ret	12					; 0000000cH
?qt_metacall@qAIProducerThread@@UAEHW4Call@QMetaObject@@HPAPAX@Z ENDP ; qAIProducerThread::qt_metacall
_TEXT	ENDS
; Function compile flags: /Ogtp
;	COMDAT ?qt_metacast@qAIProducerThread@@UAEPAXPBD@Z
_TEXT	SEGMENT
__clname$ = 8						; size = 4
?qt_metacast@qAIProducerThread@@UAEPAXPBD@Z PROC	; qAIProducerThread::qt_metacast, COMDAT
; _this$ = ecx
; File c:\users\unm\documents\github\cacode\src\failsafec\generatedfiles\release\moc_qaiproducerthread.cpp
; Line 147
	push	ebp
	mov	ebp, esp
	push	esi
; Line 148
	mov	esi, DWORD PTR __clname$[ebp]
	push	edi
	mov	edi, ecx
	test	esi, esi
	jne	SHORT $LN2@qt_metacas
	pop	edi
	xor	eax, eax
; Line 152
	pop	esi
	pop	ebp
	ret	4
$LN2@qt_metacas:
; Line 149
	mov	eax, OFFSET ?qt_meta_stringdata_qAIProducerThread@@3Uqt_meta_stringdata_qAIProducerThread_t@@B+128
	mov	ecx, esi
	npad	3
$LL5@qt_metacas:
	mov	dl, BYTE PTR [ecx]
	cmp	dl, BYTE PTR [eax]
	jne	SHORT $LN6@qt_metacas
	test	dl, dl
	je	SHORT $LN7@qt_metacas
	mov	dl, BYTE PTR [ecx+1]
	cmp	dl, BYTE PTR [eax+1]
	jne	SHORT $LN6@qt_metacas
	add	ecx, 2
	add	eax, 2
	test	dl, dl
	jne	SHORT $LL5@qt_metacas
$LN7@qt_metacas:
	xor	eax, eax
	jmp	SHORT $LN8@qt_metacas
$LN6@qt_metacas:
	sbb	eax, eax
	or	eax, 1
$LN8@qt_metacas:
	test	eax, eax
	jne	SHORT $LN3@qt_metacas
; Line 150
	mov	eax, edi
	pop	edi
; Line 152
	pop	esi
	pop	ebp
	ret	4
$LN3@qt_metacas:
; Line 151
	push	esi
	mov	ecx, edi
	call	DWORD PTR __imp_?qt_metacast@QThread@@UAEPAXPBD@Z
	pop	edi
; Line 152
	pop	esi
	pop	ebp
	ret	4
?qt_metacast@qAIProducerThread@@UAEPAXPBD@Z ENDP	; qAIProducerThread::qt_metacast
_TEXT	ENDS
; Function compile flags: /Ogtp
;	COMDAT ?metaObject@qAIProducerThread@@UBEPBUQMetaObject@@XZ
_TEXT	SEGMENT
?metaObject@qAIProducerThread@@UBEPBUQMetaObject@@XZ PROC ; qAIProducerThread::metaObject, COMDAT
; _this$ = ecx
; File c:\users\unm\documents\github\cacode\src\failsafec\generatedfiles\release\moc_qaiproducerthread.cpp
; Line 143
	mov	ecx, DWORD PTR [ecx+4]
	cmp	DWORD PTR [ecx+24], 0
	je	SHORT $LN3@metaObject
	jmp	DWORD PTR __imp_?dynamicMetaObject@QObjectData@@QBEPAUQMetaObject@@XZ
$LN3@metaObject:
	mov	eax, OFFSET ?staticMetaObject@qAIProducerThread@@2UQMetaObject@@B ; qAIProducerThread::staticMetaObject
; Line 144
	ret	0
?metaObject@qAIProducerThread@@UBEPBUQMetaObject@@XZ ENDP ; qAIProducerThread::metaObject
_TEXT	ENDS
; Function compile flags: /Ogtp
;	COMDAT ??C?$QScopedPointer@VQObjectData@@U?$QScopedPointerDeleter@VQObjectData@@@@@@QBEPAVQObjectData@@XZ
_TEXT	SEGMENT
??C?$QScopedPointer@VQObjectData@@U?$QScopedPointerDeleter@VQObjectData@@@@@@QBEPAVQObjectData@@XZ PROC ; QScopedPointer<QObjectData,QScopedPointerDeleter<QObjectData> >::operator->, COMDAT
; _this$ = ecx
; File c:\qt\5.13.1\msvc2017\include\qtcore\qscopedpointer.h
; Line 118
	mov	eax, DWORD PTR [ecx]
; Line 119
	ret	0
??C?$QScopedPointer@VQObjectData@@U?$QScopedPointerDeleter@VQObjectData@@@@@@QBEPAVQObjectData@@XZ ENDP ; QScopedPointer<QObjectData,QScopedPointerDeleter<QObjectData> >::operator->
_TEXT	ENDS
END
