; Listing generated by Microsoft (R) Optimizing Compiler Version 19.16.27032.1 

	TITLE	C:\Users\unm\Documents\GitHub\caCode\src\failSafeC\GeneratedFiles\Release\moc_qContAcqAITrigThread.cpp
	.686P
	.XMM
	include listing.inc
	.model	flat

INCLUDELIB MSVCRT
INCLUDELIB OLDNAMES

EXTRN	__imp_?staticMetaObject@QThread@@2UQMetaObject@@B:BYTE
CONST	SEGMENT
?qt_meta_stringdata_qContAcqAITrigThread@@3Uqt_meta_stringdata_qContAcqAITrigThread_t@@B DD 0ffffffffH ; qt_meta_stringdata_qContAcqAITrigThread
	DD	014H
	DD	00H
	DD	080H
	DD	0ffffffffH
	DD	08H
	DD	00H
	DD	085H
	DD	0ffffffffH
	DD	00H
	DD	00H
	DD	07eH
	DD	0ffffffffH
	DD	03H
	DD	00H
	DD	06fH
	DD	0ffffffffH
	DD	08H
	DD	00H
	DD	063H
	DD	0ffffffffH
	DD	0dH
	DD	00H
	DD	05cH
	DD	0ffffffffH
	DD	0fH
	DD	00H
	DD	05aH
	DD	0ffffffffH
	DD	0aH
	DD	00H
	DD	05aH
	DB	071H
	DB	043H
	DB	06fH
	DB	06eH
	DB	074H
	DB	041H
	DB	063H
	DB	071H
	DB	041H
	DB	049H
	DB	054H
	DB	072H
	DB	069H
	DB	067H
	DB	054H
	DB	068H
	DB	072H
	DB	065H
	DB	061H
	DB	064H
	DB	00H
	DB	065H
	DB	072H
	DB	072H
	DB	06fH
	DB	072H
	DB	04dH
	DB	073H
	DB	067H
	DB	00H
	DB	00H
	DB	06dH
	DB	073H
	DB	067H
	DB	00H
	DB	072H
	DB	065H
	DB	073H
	DB	070H
	DB	06fH
	DB	06eH
	DB	073H
	DB	065H
	DB	00H
	DB	074H
	DB	068H
	DB	072H
	DB	065H
	DB	061H
	DB	064H
	DB	053H
	DB	074H
	DB	061H
	DB	072H
	DB	074H
	DB	065H
	DB	064H
	DB	00H
	DB	061H
	DB	06cH
	DB	06cH
	DB	044H
	DB	061H
	DB	074H
	DB	061H
	DB	041H
	DB	063H
	DB	071H
	DB	075H
	DB	069H
	DB	072H
	DB	065H
	DB	064H
	DB	00H
	DB	061H
	DB	063H
	DB	071H
	DB	053H
	DB	074H
	DB	061H
	DB	072H
	DB	074H
	DB	065H
	DB	064H
	DB	00H
	ORG $+3
?qt_meta_data_qContAcqAITrigThread@@3QBIB DD 08H	; qt_meta_data_qContAcqAITrigThread
	DD	00H
	DD	00H
	DD	00H
	DD	05H
	DD	0eH
	DD	00H
	DD	00H
	DD	00H
	DD	00H
	DD	00H
	DD	00H
	DD	00H
	DD	05H
	DD	01H
	DD	01H
	DD	027H
	DD	02H
	DD	06H
	DD	04H
	DD	01H
	DD	02aH
	DD	02H
	DD	06H
	DD	05H
	DD	00H
	DD	02dH
	DD	02H
	DD	06H
	DD	06H
	DD	00H
	DD	02eH
	DD	02H
	DD	06H
	DD	07H
	DD	00H
	DD	02fH
	DD	02H
	DD	06H
	DD	02bH
	DD	0aH
	DD	03H
	DD	02bH
	DD	0aH
	DD	03H
	DD	02bH
	DD	02bH
	DD	02bH
	DD	00H
CONST	ENDS
PUBLIC	?metaObject@qContAcqAITrigThread@@UBEPBUQMetaObject@@XZ ; qContAcqAITrigThread::metaObject
PUBLIC	?qt_metacast@qContAcqAITrigThread@@UAEPAXPBD@Z	; qContAcqAITrigThread::qt_metacast
PUBLIC	?qt_metacall@qContAcqAITrigThread@@UAEHW4Call@QMetaObject@@HPAPAX@Z ; qContAcqAITrigThread::qt_metacall
PUBLIC	?qt_static_metacall@qContAcqAITrigThread@@CAXPAVQObject@@W4Call@QMetaObject@@HPAPAX@Z ; qContAcqAITrigThread::qt_static_metacall
PUBLIC	?errorMsg@qContAcqAITrigThread@@QAEXABVQString@@@Z ; qContAcqAITrigThread::errorMsg
PUBLIC	?response@qContAcqAITrigThread@@QAEXABVQString@@@Z ; qContAcqAITrigThread::response
PUBLIC	?threadStarted@qContAcqAITrigThread@@QAEXXZ	; qContAcqAITrigThread::threadStarted
PUBLIC	?allDataAcquired@qContAcqAITrigThread@@QAEXXZ	; qContAcqAITrigThread::allDataAcquired
PUBLIC	?acqStarted@qContAcqAITrigThread@@QAEXXZ	; qContAcqAITrigThread::acqStarted
PUBLIC	?staticMetaObject@qContAcqAITrigThread@@2UQMetaObject@@B ; qContAcqAITrigThread::staticMetaObject
EXTRN	__imp_?activate@QMetaObject@@SAXPAVQObject@@PBU1@HPAPAX@Z:PROC
EXTRN	__imp_?dynamicMetaObject@QObjectData@@QBEPAUQMetaObject@@XZ:PROC
EXTRN	__imp_?qt_metacast@QThread@@UAEPAXPBD@Z:PROC
EXTRN	__imp_?qt_metacall@QThread@@UAEHW4Call@QMetaObject@@HPAPAX@Z:PROC
CRT$XCU	SEGMENT
??staticMetaObject$initializer$@qContAcqAITrigThread@@2P6AXXZA@@3P6AXXZA DD FLAT:??__E?staticMetaObject@qContAcqAITrigThread@@2UQMetaObject@@B@@YAXXZ ; ??staticMetaObject$initializer$@qContAcqAITrigThread@@2P6AXXZA@@3P6AXXZA
CRT$XCU	ENDS
_DATA	SEGMENT
?staticMetaObject@qContAcqAITrigThread@@2UQMetaObject@@B DB 4 DUP(00H) ; qContAcqAITrigThread::staticMetaObject
	DD	FLAT:?qt_meta_stringdata_qContAcqAITrigThread@@3Uqt_meta_stringdata_qContAcqAITrigThread_t@@B
	DD	FLAT:?qt_meta_data_qContAcqAITrigThread@@3QBIB
	DD	FLAT:?qt_static_metacall@qContAcqAITrigThread@@CAXPAVQObject@@W4Call@QMetaObject@@HPAPAX@Z
	DD	00H
	DD	00H
_DATA	ENDS
; Function compile flags: /Ogtp
;	COMDAT ??$addressof@$$CBVQString@@@std@@YAPBVQString@@ABV1@@Z
_TEXT	SEGMENT
__Val$ = 8						; size = 4
??$addressof@$$CBVQString@@@std@@YAPBVQString@@ABV1@@Z PROC ; std::addressof<QString const >, COMDAT
; File c:\program files (x86)\microsoft visual studio\2017\community\vc\tools\msvc\14.16.27023\include\xstddef
; Line 329
	push	ebp
	mov	ebp, esp
; Line 330
	mov	eax, DWORD PTR __Val$[ebp]
; Line 331
	pop	ebp
	ret	0
??$addressof@$$CBVQString@@@std@@YAPBVQString@@ABV1@@Z ENDP ; std::addressof<QString const >
_TEXT	ENDS
; Function compile flags: /Ogtp
;	COMDAT ??__E?staticMetaObject@qContAcqAITrigThread@@2UQMetaObject@@B@@YAXXZ
text$di	SEGMENT
??__E?staticMetaObject@qContAcqAITrigThread@@2UQMetaObject@@B@@YAXXZ PROC ; `dynamic initializer for 'qContAcqAITrigThread::staticMetaObject'', COMDAT
; File c:\users\unm\documents\github\cacode\src\failsafec\generatedfiles\release\moc_qcontacqaitrigthread.cpp
; Line 135
	mov	eax, DWORD PTR __imp_?staticMetaObject@QThread@@2UQMetaObject@@B
	mov	DWORD PTR ?staticMetaObject@qContAcqAITrigThread@@2UQMetaObject@@B, eax
; Line 140
	ret	0
??__E?staticMetaObject@qContAcqAITrigThread@@2UQMetaObject@@B@@YAXXZ ENDP ; `dynamic initializer for 'qContAcqAITrigThread::staticMetaObject''
text$di	ENDS
; Function compile flags: /Ogtp
;	COMDAT ?acqStarted@qContAcqAITrigThread@@QAEXXZ
_TEXT	SEGMENT
?acqStarted@qContAcqAITrigThread@@QAEXXZ PROC		; qContAcqAITrigThread::acqStarted, COMDAT
; _this$ = ecx
; File c:\users\unm\documents\github\cacode\src\failsafec\generatedfiles\release\moc_qcontacqaitrigthread.cpp
; Line 203
	push	0
	push	4
	push	OFFSET ?staticMetaObject@qContAcqAITrigThread@@2UQMetaObject@@B ; qContAcqAITrigThread::staticMetaObject
	push	ecx
	call	DWORD PTR __imp_?activate@QMetaObject@@SAXPAVQObject@@PBU1@HPAPAX@Z
	add	esp, 16					; 00000010H
; Line 204
	ret	0
?acqStarted@qContAcqAITrigThread@@QAEXXZ ENDP		; qContAcqAITrigThread::acqStarted
_TEXT	ENDS
; Function compile flags: /Ogtp
;	COMDAT ?allDataAcquired@qContAcqAITrigThread@@QAEXXZ
_TEXT	SEGMENT
?allDataAcquired@qContAcqAITrigThread@@QAEXXZ PROC	; qContAcqAITrigThread::allDataAcquired, COMDAT
; _this$ = ecx
; File c:\users\unm\documents\github\cacode\src\failsafec\generatedfiles\release\moc_qcontacqaitrigthread.cpp
; Line 197
	push	0
	push	3
	push	OFFSET ?staticMetaObject@qContAcqAITrigThread@@2UQMetaObject@@B ; qContAcqAITrigThread::staticMetaObject
	push	ecx
	call	DWORD PTR __imp_?activate@QMetaObject@@SAXPAVQObject@@PBU1@HPAPAX@Z
	add	esp, 16					; 00000010H
; Line 198
	ret	0
?allDataAcquired@qContAcqAITrigThread@@QAEXXZ ENDP	; qContAcqAITrigThread::allDataAcquired
_TEXT	ENDS
; Function compile flags: /Ogtp
;	COMDAT ?threadStarted@qContAcqAITrigThread@@QAEXXZ
_TEXT	SEGMENT
?threadStarted@qContAcqAITrigThread@@QAEXXZ PROC	; qContAcqAITrigThread::threadStarted, COMDAT
; _this$ = ecx
; File c:\users\unm\documents\github\cacode\src\failsafec\generatedfiles\release\moc_qcontacqaitrigthread.cpp
; Line 191
	push	0
	push	2
	push	OFFSET ?staticMetaObject@qContAcqAITrigThread@@2UQMetaObject@@B ; qContAcqAITrigThread::staticMetaObject
	push	ecx
	call	DWORD PTR __imp_?activate@QMetaObject@@SAXPAVQObject@@PBU1@HPAPAX@Z
	add	esp, 16					; 00000010H
; Line 192
	ret	0
?threadStarted@qContAcqAITrigThread@@QAEXXZ ENDP	; qContAcqAITrigThread::threadStarted
_TEXT	ENDS
; Function compile flags: /Ogtp
;	COMDAT ?response@qContAcqAITrigThread@@QAEXABVQString@@@Z
_TEXT	SEGMENT
__a$ = -8						; size = 8
__t1$ = 8						; size = 4
?response@qContAcqAITrigThread@@QAEXABVQString@@@Z PROC	; qContAcqAITrigThread::response, COMDAT
; _this$ = ecx
; File c:\users\unm\documents\github\cacode\src\failsafec\generatedfiles\release\moc_qcontacqaitrigthread.cpp
; Line 183
	push	ebp
	mov	ebp, esp
	sub	esp, 8
; File c:\program files (x86)\microsoft visual studio\2017\community\vc\tools\msvc\14.16.27023\include\xstddef
; Line 330
	mov	eax, DWORD PTR __t1$[ebp]
	mov	DWORD PTR __a$[ebp+4], eax
; File c:\users\unm\documents\github\cacode\src\failsafec\generatedfiles\release\moc_qcontacqaitrigthread.cpp
; Line 185
	lea	eax, DWORD PTR __a$[ebp]
	push	eax
	push	1
	push	OFFSET ?staticMetaObject@qContAcqAITrigThread@@2UQMetaObject@@B ; qContAcqAITrigThread::staticMetaObject
	push	ecx
	mov	DWORD PTR __a$[ebp], 0
	call	DWORD PTR __imp_?activate@QMetaObject@@SAXPAVQObject@@PBU1@HPAPAX@Z
	add	esp, 16					; 00000010H
; Line 186
	mov	esp, ebp
	pop	ebp
	ret	4
?response@qContAcqAITrigThread@@QAEXABVQString@@@Z ENDP	; qContAcqAITrigThread::response
_TEXT	ENDS
; Function compile flags: /Ogtp
;	COMDAT ?errorMsg@qContAcqAITrigThread@@QAEXABVQString@@@Z
_TEXT	SEGMENT
__a$ = -8						; size = 8
__t1$ = 8						; size = 4
?errorMsg@qContAcqAITrigThread@@QAEXABVQString@@@Z PROC	; qContAcqAITrigThread::errorMsg, COMDAT
; _this$ = ecx
; File c:\users\unm\documents\github\cacode\src\failsafec\generatedfiles\release\moc_qcontacqaitrigthread.cpp
; Line 176
	push	ebp
	mov	ebp, esp
	sub	esp, 8
; File c:\program files (x86)\microsoft visual studio\2017\community\vc\tools\msvc\14.16.27023\include\xstddef
; Line 330
	mov	eax, DWORD PTR __t1$[ebp]
	mov	DWORD PTR __a$[ebp+4], eax
; File c:\users\unm\documents\github\cacode\src\failsafec\generatedfiles\release\moc_qcontacqaitrigthread.cpp
; Line 178
	lea	eax, DWORD PTR __a$[ebp]
	push	eax
	push	0
	push	OFFSET ?staticMetaObject@qContAcqAITrigThread@@2UQMetaObject@@B ; qContAcqAITrigThread::staticMetaObject
	push	ecx
	mov	DWORD PTR __a$[ebp], 0
	call	DWORD PTR __imp_?activate@QMetaObject@@SAXPAVQObject@@PBU1@HPAPAX@Z
	add	esp, 16					; 00000010H
; Line 179
	mov	esp, ebp
	pop	ebp
	ret	4
?errorMsg@qContAcqAITrigThread@@QAEXABVQString@@@Z ENDP	; qContAcqAITrigThread::errorMsg
_TEXT	ENDS
; Function compile flags: /Ogtp
;	COMDAT ?qt_static_metacall@qContAcqAITrigThread@@CAXPAVQObject@@W4Call@QMetaObject@@HPAPAX@Z
_TEXT	SEGMENT
__o$ = 8						; size = 4
__c$ = 12						; size = 4
__id$ = 16						; size = 4
__a$ = 20						; size = 4
?qt_static_metacall@qContAcqAITrigThread@@CAXPAVQObject@@W4Call@QMetaObject@@HPAPAX@Z PROC ; qContAcqAITrigThread::qt_static_metacall, COMDAT
; File c:\users\unm\documents\github\cacode\src\failsafec\generatedfiles\release\moc_qcontacqaitrigthread.cpp
; Line 82
	push	ebp
	mov	ebp, esp
; Line 83
	mov	eax, DWORD PTR __c$[ebp]
	test	eax, eax
	jne	$LN4@qt_static_
; Line 86
	mov	eax, DWORD PTR __id$[ebp]
	cmp	eax, 4
	ja	$LN17@qt_static_
	jmp	DWORD PTR $LN27@qt_static_[eax*4]
$LN6@qt_static_:
; Line 87
	mov	eax, DWORD PTR __a$[ebp]
	mov	ecx, DWORD PTR __o$[ebp]
	push	DWORD PTR [eax+4]
	call	?errorMsg@qContAcqAITrigThread@@QAEXABVQString@@@Z ; qContAcqAITrigThread::errorMsg
; Line 132
	pop	ebp
	ret	0
$LN7@qt_static_:
; Line 88
	mov	eax, DWORD PTR __a$[ebp]
	mov	ecx, DWORD PTR __o$[ebp]
	push	DWORD PTR [eax+4]
	call	?response@qContAcqAITrigThread@@QAEXABVQString@@@Z ; qContAcqAITrigThread::response
; Line 132
	pop	ebp
	ret	0
$LN8@qt_static_:
; Line 191
	mov	DWORD PTR __a$[ebp], 0
	mov	DWORD PTR __id$[ebp], 2
	mov	DWORD PTR __c$[ebp], OFFSET ?staticMetaObject@qContAcqAITrigThread@@2UQMetaObject@@B ; qContAcqAITrigThread::staticMetaObject
; Line 132
	pop	ebp
; Line 191
	jmp	DWORD PTR __imp_?activate@QMetaObject@@SAXPAVQObject@@PBU1@HPAPAX@Z
$LN9@qt_static_:
; Line 197
	mov	DWORD PTR __a$[ebp], 0
	mov	DWORD PTR __id$[ebp], 3
	mov	DWORD PTR __c$[ebp], OFFSET ?staticMetaObject@qContAcqAITrigThread@@2UQMetaObject@@B ; qContAcqAITrigThread::staticMetaObject
; Line 132
	pop	ebp
; Line 197
	jmp	DWORD PTR __imp_?activate@QMetaObject@@SAXPAVQObject@@PBU1@HPAPAX@Z
$LN10@qt_static_:
; Line 203
	mov	DWORD PTR __a$[ebp], 0
	mov	DWORD PTR __id$[ebp], 4
	mov	DWORD PTR __c$[ebp], OFFSET ?staticMetaObject@qContAcqAITrigThread@@2UQMetaObject@@B ; qContAcqAITrigThread::staticMetaObject
; Line 132
	pop	ebp
; Line 203
	jmp	DWORD PTR __imp_?activate@QMetaObject@@SAXPAVQObject@@PBU1@HPAPAX@Z
$LN4@qt_static_:
; Line 94
	cmp	eax, 10					; 0000000aH
	jne	SHORT $LN17@qt_static_
; Line 95
	mov	eax, DWORD PTR __a$[ebp]
	mov	ecx, DWORD PTR [eax]
; Line 98
	mov	eax, DWORD PTR [eax+4]
	mov	eax, DWORD PTR [eax]
	cmp	eax, OFFSET ?errorMsg@qContAcqAITrigThread@@QAEXABVQString@@@Z ; qContAcqAITrigThread::errorMsg
	jne	SHORT $LN13@qt_static_
; Line 99
	mov	DWORD PTR [ecx], 0
; Line 132
	pop	ebp
	ret	0
$LN13@qt_static_:
; Line 105
	cmp	eax, OFFSET ?response@qContAcqAITrigThread@@QAEXABVQString@@@Z ; qContAcqAITrigThread::response
	jne	SHORT $LN14@qt_static_
; Line 106
	mov	DWORD PTR [ecx], 1
; Line 132
	pop	ebp
	ret	0
$LN14@qt_static_:
; Line 112
	cmp	eax, OFFSET ?threadStarted@qContAcqAITrigThread@@QAEXXZ ; qContAcqAITrigThread::threadStarted
	jne	SHORT $LN15@qt_static_
; Line 113
	mov	DWORD PTR [ecx], 2
; Line 132
	pop	ebp
	ret	0
$LN15@qt_static_:
; Line 119
	cmp	eax, OFFSET ?allDataAcquired@qContAcqAITrigThread@@QAEXXZ ; qContAcqAITrigThread::allDataAcquired
	jne	SHORT $LN16@qt_static_
; Line 120
	mov	DWORD PTR [ecx], 3
; Line 132
	pop	ebp
	ret	0
$LN16@qt_static_:
; Line 126
	cmp	eax, OFFSET ?acqStarted@qContAcqAITrigThread@@QAEXXZ ; qContAcqAITrigThread::acqStarted
	jne	SHORT $LN17@qt_static_
; Line 127
	mov	DWORD PTR [ecx], 4
$LN17@qt_static_:
; Line 132
	pop	ebp
	ret	0
	npad	1
$LN27@qt_static_:
	DD	$LN6@qt_static_
	DD	$LN7@qt_static_
	DD	$LN8@qt_static_
	DD	$LN9@qt_static_
	DD	$LN10@qt_static_
?qt_static_metacall@qContAcqAITrigThread@@CAXPAVQObject@@W4Call@QMetaObject@@HPAPAX@Z ENDP ; qContAcqAITrigThread::qt_static_metacall
_TEXT	ENDS
; Function compile flags: /Ogtp
;	COMDAT ?qt_metacall@qContAcqAITrigThread@@UAEHW4Call@QMetaObject@@HPAPAX@Z
_TEXT	SEGMENT
_this$1$ = -4						; size = 4
__c$ = 8						; size = 4
__id$ = 12						; size = 4
__a$ = 16						; size = 4
?qt_metacall@qContAcqAITrigThread@@UAEHW4Call@QMetaObject@@HPAPAX@Z PROC ; qContAcqAITrigThread::qt_metacall, COMDAT
; _this$ = ecx
; File c:\users\unm\documents\github\cacode\src\failsafec\generatedfiles\release\moc_qcontacqaitrigthread.cpp
; Line 158
	push	ebp
	mov	ebp, esp
	push	ecx
	push	ebx
; Line 159
	mov	ebx, DWORD PTR __a$[ebp]
	mov	eax, ecx
	push	esi
	push	edi
	mov	edi, DWORD PTR __c$[ebp]
	push	ebx
	push	DWORD PTR __id$[ebp]
	mov	DWORD PTR _this$1$[ebp], eax
	push	edi
	call	DWORD PTR __imp_?qt_metacall@QThread@@UAEHW4Call@QMetaObject@@HPAPAX@Z
	mov	esi, eax
; Line 160
	test	esi, esi
	js	SHORT $LN1@qt_metacal
; Line 162
	test	edi, edi
	jne	SHORT $LN3@qt_metacal
; Line 163
	cmp	esi, 5
	jge	SHORT $LN7@qt_metacal
; Line 164
	push	ebx
	push	esi
	push	edi
	push	DWORD PTR _this$1$[ebp]
	call	?qt_static_metacall@qContAcqAITrigThread@@CAXPAVQObject@@W4Call@QMetaObject@@HPAPAX@Z ; qContAcqAITrigThread::qt_static_metacall
	add	esp, 16					; 00000010H
; Line 171
	sub	esi, 5
	mov	eax, esi
	pop	edi
; Line 172
	pop	esi
	pop	ebx
	mov	esp, ebp
	pop	ebp
	ret	12					; 0000000cH
$LN3@qt_metacal:
; Line 166
	cmp	edi, 12					; 0000000cH
	jne	SHORT $LN6@qt_metacal
; Line 167
	cmp	esi, 5
	jge	SHORT $LN7@qt_metacal
; Line 168
	mov	eax, DWORD PTR [ebx]
	mov	DWORD PTR [eax], -1
$LN7@qt_metacal:
; Line 171
	sub	esi, 5
$LN6@qt_metacal:
	mov	eax, esi
$LN1@qt_metacal:
	pop	edi
; Line 172
	pop	esi
	pop	ebx
	mov	esp, ebp
	pop	ebp
	ret	12					; 0000000cH
?qt_metacall@qContAcqAITrigThread@@UAEHW4Call@QMetaObject@@HPAPAX@Z ENDP ; qContAcqAITrigThread::qt_metacall
_TEXT	ENDS
; Function compile flags: /Ogtp
;	COMDAT ?qt_metacast@qContAcqAITrigThread@@UAEPAXPBD@Z
_TEXT	SEGMENT
__clname$ = 8						; size = 4
?qt_metacast@qContAcqAITrigThread@@UAEPAXPBD@Z PROC	; qContAcqAITrigThread::qt_metacast, COMDAT
; _this$ = ecx
; File c:\users\unm\documents\github\cacode\src\failsafec\generatedfiles\release\moc_qcontacqaitrigthread.cpp
; Line 150
	push	ebp
	mov	ebp, esp
	push	esi
; Line 151
	mov	esi, DWORD PTR __clname$[ebp]
	push	edi
	mov	edi, ecx
	test	esi, esi
	jne	SHORT $LN2@qt_metacas
	pop	edi
	xor	eax, eax
; Line 155
	pop	esi
	pop	ebp
	ret	4
$LN2@qt_metacas:
; Line 152
	mov	eax, OFFSET ?qt_meta_stringdata_qContAcqAITrigThread@@3Uqt_meta_stringdata_qContAcqAITrigThread_t@@B+128
	mov	ecx, esi
	npad	3
$LL5@qt_metacas:
	mov	dl, BYTE PTR [ecx]
	cmp	dl, BYTE PTR [eax]
	jne	SHORT $LN6@qt_metacas
	test	dl, dl
	je	SHORT $LN7@qt_metacas
	mov	dl, BYTE PTR [ecx+1]
	cmp	dl, BYTE PTR [eax+1]
	jne	SHORT $LN6@qt_metacas
	add	ecx, 2
	add	eax, 2
	test	dl, dl
	jne	SHORT $LL5@qt_metacas
$LN7@qt_metacas:
	xor	eax, eax
	jmp	SHORT $LN8@qt_metacas
$LN6@qt_metacas:
	sbb	eax, eax
	or	eax, 1
$LN8@qt_metacas:
	test	eax, eax
	jne	SHORT $LN3@qt_metacas
; Line 153
	mov	eax, edi
	pop	edi
; Line 155
	pop	esi
	pop	ebp
	ret	4
$LN3@qt_metacas:
; Line 154
	push	esi
	mov	ecx, edi
	call	DWORD PTR __imp_?qt_metacast@QThread@@UAEPAXPBD@Z
	pop	edi
; Line 155
	pop	esi
	pop	ebp
	ret	4
?qt_metacast@qContAcqAITrigThread@@UAEPAXPBD@Z ENDP	; qContAcqAITrigThread::qt_metacast
_TEXT	ENDS
; Function compile flags: /Ogtp
;	COMDAT ?metaObject@qContAcqAITrigThread@@UBEPBUQMetaObject@@XZ
_TEXT	SEGMENT
?metaObject@qContAcqAITrigThread@@UBEPBUQMetaObject@@XZ PROC ; qContAcqAITrigThread::metaObject, COMDAT
; _this$ = ecx
; File c:\users\unm\documents\github\cacode\src\failsafec\generatedfiles\release\moc_qcontacqaitrigthread.cpp
; Line 146
	mov	ecx, DWORD PTR [ecx+4]
	cmp	DWORD PTR [ecx+24], 0
	je	SHORT $LN3@metaObject
	jmp	DWORD PTR __imp_?dynamicMetaObject@QObjectData@@QBEPAUQMetaObject@@XZ
$LN3@metaObject:
	mov	eax, OFFSET ?staticMetaObject@qContAcqAITrigThread@@2UQMetaObject@@B ; qContAcqAITrigThread::staticMetaObject
; Line 147
	ret	0
?metaObject@qContAcqAITrigThread@@UBEPBUQMetaObject@@XZ ENDP ; qContAcqAITrigThread::metaObject
_TEXT	ENDS
; Function compile flags: /Ogtp
;	COMDAT ??C?$QScopedPointer@VQObjectData@@U?$QScopedPointerDeleter@VQObjectData@@@@@@QBEPAVQObjectData@@XZ
_TEXT	SEGMENT
??C?$QScopedPointer@VQObjectData@@U?$QScopedPointerDeleter@VQObjectData@@@@@@QBEPAVQObjectData@@XZ PROC ; QScopedPointer<QObjectData,QScopedPointerDeleter<QObjectData> >::operator->, COMDAT
; _this$ = ecx
; File c:\qt\5.13.1\msvc2017\include\qtcore\qscopedpointer.h
; Line 118
	mov	eax, DWORD PTR [ecx]
; Line 119
	ret	0
??C?$QScopedPointer@VQObjectData@@U?$QScopedPointerDeleter@VQObjectData@@@@@@QBEPAVQObjectData@@XZ ENDP ; QScopedPointer<QObjectData,QScopedPointerDeleter<QObjectData> >::operator->
_TEXT	ENDS
END
