; Listing generated by Microsoft (R) Optimizing Compiler Version 19.16.27032.1 

	TITLE	C:\Users\unm\Documents\GitHub\caCode\src\failSafeC\GeneratedFiles\Release\moc_qFailSafeWin.cpp
	.686P
	.XMM
	include listing.inc
	.model	flat

INCLUDELIB MSVCRT
INCLUDELIB OLDNAMES

EXTRN	__imp_?staticMetaObject@QMainWindow@@2UQMetaObject@@B:BYTE
CONST	SEGMENT
?qt_meta_stringdata_qFailSafeWin@@3Uqt_meta_stringdata_qFailSafeWin_t@@B DD 0ffffffffH ; qt_meta_stringdata_qFailSafeWin
	DD	0cH
	DD	00H
	DD	0f0H
	DD	0ffffffffH
	DD	011H
	DD	00H
	DD	0edH
	DD	0ffffffffH
	DD	00H
	DD	00H
	DD	0efH
	DD	0ffffffffH
	DD	010H
	DD	00H
	DD	0e0H
	DD	0ffffffffH
	DD	0bH
	DD	00H
	DD	0e1H
	DD	0ffffffffH
	DD	012H
	DD	00H
	DD	0ddH
	DD	0ffffffffH
	DD	015H
	DD	00H
	DD	0e0H
	DD	0ffffffffH
	DD	012H
	DD	00H
	DD	0e6H
	DD	0ffffffffH
	DD	015H
	DD	00H
	DD	0e9H
	DD	0ffffffffH
	DD	019H
	DD	00H
	DD	0efH
	DD	0ffffffffH
	DD	013H
	DD	00H
	DD	0f9H
	DD	0ffffffffH
	DD	012H
	DD	00H
	DD	0fdH
	DD	0ffffffffH
	DD	01H
	DD	00H
	DD	0100H
	DD	0ffffffffH
	DD	010H
	DD	00H
	DD	0f2H
	DD	0ffffffffH
	DD	05H
	DD	00H
	DD	0f3H
	DB	071H
	DB	046H
	DB	061H
	DB	069H
	DB	06cH
	DB	053H
	DB	061H
	DB	066H
	DB	065H
	DB	057H
	DB	069H
	DB	06eH
	DB	00H
	DB	06fH
	DB	06eH
	DB	053H
	DB	074H
	DB	061H
	DB	072H
	DB	074H
	DB	04dH
	DB	06fH
	DB	06eH
	DB	069H
	DB	074H
	DB	06fH
	DB	072H
	DB	069H
	DB	06eH
	DB	067H
	DB	00H
	DB	00H
	DB	06fH
	DB	06eH
	DB	053H
	DB	074H
	DB	06fH
	DB	070H
	DB	04dH
	DB	06fH
	DB	06eH
	DB	069H
	DB	074H
	DB	06fH
	DB	072H
	DB	069H
	DB	06eH
	DB	067H
	DB	00H
	DB	075H
	DB	070H
	DB	064H
	DB	061H
	DB	074H
	DB	065H
	DB	050H
	DB	06cH
	DB	06fH
	DB	074H
	DB	073H
	DB	00H
	DB	06fH
	DB	06eH
	DB	041H
	DB	06cH
	DB	06cH
	DB	054H
	DB	068H
	DB	072H
	DB	065H
	DB	061H
	DB	064H
	DB	053H
	DB	074H
	DB	061H
	DB	072H
	DB	074H
	DB	065H
	DB	064H
	DB	00H
	DB	06fH
	DB	06eH
	DB	043H
	DB	061H
	DB	06cH
	DB	069H
	DB	062H
	DB	072H
	DB	041H
	DB	063H
	DB	074H
	DB	069H
	DB	06fH
	DB	06eH
	DB	043H
	DB	06cH
	DB	069H
	DB	063H
	DB	06bH
	DB	065H
	DB	064H
	DB	00H
	DB	06fH
	DB	06eH
	DB	049H
	DB	053H
	DB	049H
	DB	041H
	DB	063H
	DB	074H
	DB	069H
	DB	06fH
	DB	06eH
	DB	043H
	DB	06cH
	DB	069H
	DB	063H
	DB	06bH
	DB	065H
	DB	064H
	DB	00H
	DB	06fH
	DB	06eH
	DB	056H
	DB	054H
	DB	068H
	DB	072H
	DB	065H
	DB	073H
	DB	041H
	DB	063H
	DB	074H
	DB	069H
	DB	06fH
	DB	06eH
	DB	043H
	DB	06cH
	DB	069H
	DB	063H
	DB	06bH
	DB	065H
	DB	064H
	DB	00H
	DB	06fH
	DB	06eH
	DB	049H
	DB	073H
	DB	070H
	DB	074H
	DB	061H
	DB	054H
	DB	068H
	DB	072H
	DB	065H
	DB	073H
	DB	041H
	DB	063H
	DB	074H
	DB	069H
	DB	06fH
	DB	06eH
	DB	043H
	DB	06cH
	DB	069H
	DB	063H
	DB	06bH
	DB	065H
	DB	064H
	DB	00H
	DB	06fH
	DB	06eH
	DB	053H
	DB	074H
	DB	06fH
	DB	070H
	DB	041H
	DB	063H
	DB	074H
	DB	069H
	DB	06fH
	DB	06eH
	DB	043H
	DB	06cH
	DB	069H
	DB	063H
	DB	06bH
	DB	065H
	DB	064H
	DB	00H
	DB	06cH
	DB	06fH
	DB	067H
	DB	041H
	DB	062H
	DB	06eH
	DB	06fH
	DB	072H
	DB	06dH
	DB	061H
	DB	06cH
	DB	056H
	DB	06fH
	DB	06cH
	DB	074H
	DB	061H
	DB	067H
	DB	065H
	DB	00H
	DB	076H
	DB	00H
	DB	06cH
	DB	06fH
	DB	067H
	DB	041H
	DB	062H
	DB	06eH
	DB	06fH
	DB	072H
	DB	06dH
	DB	061H
	DB	06cH
	DB	049H
	DB	073H
	DB	070H
	DB	074H
	DB	061H
	DB	00H
	DB	069H
	DB	073H
	DB	070H
	DB	074H
	DB	061H
	DB	00H
	ORG $+3
	ORG $+4
?qt_meta_data_qFailSafeWin@@3QBIB DD 08H		; qt_meta_data_qFailSafeWin
	DD	00H
	DD	00H
	DD	00H
	DD	0bH
	DD	0eH
	DD	00H
	DD	00H
	DD	00H
	DD	00H
	DD	00H
	DD	00H
	DD	00H
	DD	00H
	DD	01H
	DD	00H
	DD	045H
	DD	02H
	DD	08H
	DD	03H
	DD	00H
	DD	046H
	DD	02H
	DD	08H
	DD	04H
	DD	00H
	DD	047H
	DD	02H
	DD	08H
	DD	05H
	DD	00H
	DD	048H
	DD	02H
	DD	08H
	DD	06H
	DD	00H
	DD	049H
	DD	02H
	DD	08H
	DD	07H
	DD	00H
	DD	04aH
	DD	02H
	DD	08H
	DD	08H
	DD	00H
	DD	04bH
	DD	02H
	DD	08H
	DD	09H
	DD	00H
	DD	04cH
	DD	02H
	DD	08H
	DD	0aH
	DD	00H
	DD	04dH
	DD	02H
	DD	08H
	DD	0bH
	DD	01H
	DD	04eH
	DD	02H
	DD	08H
	DD	0dH
	DD	01H
	DD	051H
	DD	02H
	DD	08H
	DD	02bH
	DD	02bH
	DD	02bH
	DD	02bH
	DD	02bH
	DD	02bH
	DD	02bH
	DD	02bH
	DD	02bH
	DD	02bH
	DD	06H
	DD	0cH
	DD	02bH
	DD	06H
	DD	0eH
	DD	00H
CONST	ENDS
PUBLIC	?metaObject@qFailSafeWin@@UBEPBUQMetaObject@@XZ	; qFailSafeWin::metaObject
PUBLIC	?qt_metacast@qFailSafeWin@@UAEPAXPBD@Z		; qFailSafeWin::qt_metacast
PUBLIC	?qt_metacall@qFailSafeWin@@UAEHW4Call@QMetaObject@@HPAPAX@Z ; qFailSafeWin::qt_metacall
PUBLIC	?qt_static_metacall@qFailSafeWin@@CAXPAVQObject@@W4Call@QMetaObject@@HPAPAX@Z ; qFailSafeWin::qt_static_metacall
PUBLIC	?staticMetaObject@qFailSafeWin@@2UQMetaObject@@B ; qFailSafeWin::staticMetaObject
EXTRN	__imp_?dynamicMetaObject@QObjectData@@QBEPAUQMetaObject@@XZ:PROC
EXTRN	__imp_?qt_metacast@QMainWindow@@UAEPAXPBD@Z:PROC
EXTRN	__imp_?qt_metacall@QMainWindow@@UAEHW4Call@QMetaObject@@HPAPAX@Z:PROC
EXTRN	?onStartMonitoring@qFailSafeWin@@AAEXXZ:PROC	; qFailSafeWin::onStartMonitoring
EXTRN	?onStopMonitoring@qFailSafeWin@@AAEXXZ:PROC	; qFailSafeWin::onStopMonitoring
EXTRN	?updatePlots@qFailSafeWin@@AAEXXZ:PROC		; qFailSafeWin::updatePlots
EXTRN	?onAllThreadStarted@qFailSafeWin@@AAEXXZ:PROC	; qFailSafeWin::onAllThreadStarted
EXTRN	?onCalibrActionClicked@qFailSafeWin@@AAEXXZ:PROC ; qFailSafeWin::onCalibrActionClicked
EXTRN	?onISIActionClicked@qFailSafeWin@@AAEXXZ:PROC	; qFailSafeWin::onISIActionClicked
EXTRN	?onVThresActionClicked@qFailSafeWin@@AAEXXZ:PROC ; qFailSafeWin::onVThresActionClicked
EXTRN	?onIsptaThresActionClicked@qFailSafeWin@@AAEXXZ:PROC ; qFailSafeWin::onIsptaThresActionClicked
EXTRN	?onStopActionClicked@qFailSafeWin@@AAEXXZ:PROC	; qFailSafeWin::onStopActionClicked
EXTRN	?logAbnormalVoltage@qFailSafeWin@@AAEXN@Z:PROC	; qFailSafeWin::logAbnormalVoltage
EXTRN	?logAbnormalIspta@qFailSafeWin@@AAEXN@Z:PROC	; qFailSafeWin::logAbnormalIspta
EXTRN	__fltused:DWORD
CRT$XCU	SEGMENT
??staticMetaObject$initializer$@qFailSafeWin@@2P6AXXZA@@3P6AXXZA DD FLAT:??__E?staticMetaObject@qFailSafeWin@@2UQMetaObject@@B@@YAXXZ ; ??staticMetaObject$initializer$@qFailSafeWin@@2P6AXXZA@@3P6AXXZA
CRT$XCU	ENDS
_DATA	SEGMENT
?staticMetaObject@qFailSafeWin@@2UQMetaObject@@B DB 4 DUP(00H) ; qFailSafeWin::staticMetaObject
	DD	FLAT:?qt_meta_stringdata_qFailSafeWin@@3Uqt_meta_stringdata_qFailSafeWin_t@@B
	DD	FLAT:?qt_meta_data_qFailSafeWin@@3QBIB
	DD	FLAT:?qt_static_metacall@qFailSafeWin@@CAXPAVQObject@@W4Call@QMetaObject@@HPAPAX@Z
	DD	00H
	DD	00H
_DATA	ENDS
; Function compile flags: /Ogtp
;	COMDAT ??__E?staticMetaObject@qFailSafeWin@@2UQMetaObject@@B@@YAXXZ
text$di	SEGMENT
??__E?staticMetaObject@qFailSafeWin@@2UQMetaObject@@B@@YAXXZ PROC ; `dynamic initializer for 'qFailSafeWin::staticMetaObject'', COMDAT
; File c:\users\unm\documents\github\cacode\src\failsafec\generatedfiles\release\moc_qfailsafewin.cpp
; Line 127
	mov	eax, DWORD PTR __imp_?staticMetaObject@QMainWindow@@2UQMetaObject@@B
	mov	DWORD PTR ?staticMetaObject@qFailSafeWin@@2UQMetaObject@@B, eax
; Line 132
	ret	0
??__E?staticMetaObject@qFailSafeWin@@2UQMetaObject@@B@@YAXXZ ENDP ; `dynamic initializer for 'qFailSafeWin::staticMetaObject''
text$di	ENDS
; Function compile flags: /Ogtp
;	COMDAT ?qt_static_metacall@qFailSafeWin@@CAXPAVQObject@@W4Call@QMetaObject@@HPAPAX@Z
_TEXT	SEGMENT
__o$ = 8						; size = 4
__c$ = 12						; size = 4
__id$ = 16						; size = 4
__a$ = 20						; size = 4
?qt_static_metacall@qFailSafeWin@@CAXPAVQObject@@W4Call@QMetaObject@@HPAPAX@Z PROC ; qFailSafeWin::qt_static_metacall, COMDAT
; File c:\users\unm\documents\github\cacode\src\failsafec\generatedfiles\release\moc_qfailsafewin.cpp
; Line 105
	push	ebp
	mov	ebp, esp
; Line 106
	cmp	DWORD PTR __c$[ebp], 0
	jne	$LN16@qt_static_
; Line 109
	mov	eax, DWORD PTR __id$[ebp]
	cmp	eax, 10					; 0000000aH
	ja	$LN16@qt_static_
	jmp	DWORD PTR $LN21@qt_static_[eax*4]
$LN5@qt_static_:
; Line 110
	mov	ecx, DWORD PTR __o$[ebp]
; Line 124
	pop	ebp
; Line 110
	jmp	?onStartMonitoring@qFailSafeWin@@AAEXXZ	; qFailSafeWin::onStartMonitoring
$LN6@qt_static_:
; Line 111
	mov	ecx, DWORD PTR __o$[ebp]
; Line 124
	pop	ebp
; Line 111
	jmp	?onStopMonitoring@qFailSafeWin@@AAEXXZ	; qFailSafeWin::onStopMonitoring
$LN7@qt_static_:
; Line 112
	mov	ecx, DWORD PTR __o$[ebp]
; Line 124
	pop	ebp
; Line 112
	jmp	?updatePlots@qFailSafeWin@@AAEXXZ	; qFailSafeWin::updatePlots
$LN8@qt_static_:
; Line 113
	mov	ecx, DWORD PTR __o$[ebp]
; Line 124
	pop	ebp
; Line 113
	jmp	?onAllThreadStarted@qFailSafeWin@@AAEXXZ ; qFailSafeWin::onAllThreadStarted
$LN9@qt_static_:
; Line 114
	mov	ecx, DWORD PTR __o$[ebp]
; Line 124
	pop	ebp
; Line 114
	jmp	?onCalibrActionClicked@qFailSafeWin@@AAEXXZ ; qFailSafeWin::onCalibrActionClicked
$LN10@qt_static_:
; Line 115
	mov	ecx, DWORD PTR __o$[ebp]
; Line 124
	pop	ebp
; Line 115
	jmp	?onISIActionClicked@qFailSafeWin@@AAEXXZ ; qFailSafeWin::onISIActionClicked
$LN11@qt_static_:
; Line 116
	mov	ecx, DWORD PTR __o$[ebp]
; Line 124
	pop	ebp
; Line 116
	jmp	?onVThresActionClicked@qFailSafeWin@@AAEXXZ ; qFailSafeWin::onVThresActionClicked
$LN12@qt_static_:
; Line 117
	mov	ecx, DWORD PTR __o$[ebp]
; Line 124
	pop	ebp
; Line 117
	jmp	?onIsptaThresActionClicked@qFailSafeWin@@AAEXXZ ; qFailSafeWin::onIsptaThresActionClicked
$LN13@qt_static_:
; Line 118
	mov	ecx, DWORD PTR __o$[ebp]
; Line 124
	pop	ebp
; Line 118
	jmp	?onStopActionClicked@qFailSafeWin@@AAEXXZ ; qFailSafeWin::onStopActionClicked
$LN14@qt_static_:
; Line 119
	mov	eax, DWORD PTR __a$[ebp]
	sub	esp, 8
	mov	ecx, DWORD PTR __o$[ebp]
	mov	eax, DWORD PTR [eax+4]
	movsd	xmm0, QWORD PTR [eax]
	movsd	QWORD PTR [esp], xmm0
	call	?logAbnormalVoltage@qFailSafeWin@@AAEXN@Z ; qFailSafeWin::logAbnormalVoltage
; Line 124
	pop	ebp
	ret	0
$LN15@qt_static_:
; Line 120
	mov	eax, DWORD PTR __a$[ebp]
	sub	esp, 8
	mov	ecx, DWORD PTR __o$[ebp]
	mov	eax, DWORD PTR [eax+4]
	movsd	xmm0, QWORD PTR [eax]
	movsd	QWORD PTR [esp], xmm0
	call	?logAbnormalIspta@qFailSafeWin@@AAEXN@Z	; qFailSafeWin::logAbnormalIspta
$LN16@qt_static_:
; Line 124
	pop	ebp
	ret	0
	npad	3
$LN21@qt_static_:
	DD	$LN5@qt_static_
	DD	$LN6@qt_static_
	DD	$LN7@qt_static_
	DD	$LN8@qt_static_
	DD	$LN9@qt_static_
	DD	$LN10@qt_static_
	DD	$LN11@qt_static_
	DD	$LN12@qt_static_
	DD	$LN13@qt_static_
	DD	$LN14@qt_static_
	DD	$LN15@qt_static_
?qt_static_metacall@qFailSafeWin@@CAXPAVQObject@@W4Call@QMetaObject@@HPAPAX@Z ENDP ; qFailSafeWin::qt_static_metacall
_TEXT	ENDS
; Function compile flags: /Ogtp
;	COMDAT ?qt_metacall@qFailSafeWin@@UAEHW4Call@QMetaObject@@HPAPAX@Z
_TEXT	SEGMENT
_this$1$ = -4						; size = 4
__c$ = 8						; size = 4
__id$ = 12						; size = 4
__a$ = 16						; size = 4
?qt_metacall@qFailSafeWin@@UAEHW4Call@QMetaObject@@HPAPAX@Z PROC ; qFailSafeWin::qt_metacall, COMDAT
; _this$ = ecx
; File c:\users\unm\documents\github\cacode\src\failsafec\generatedfiles\release\moc_qfailsafewin.cpp
; Line 150
	push	ebp
	mov	ebp, esp
	push	ecx
	push	ebx
; Line 151
	mov	ebx, DWORD PTR __a$[ebp]
	mov	eax, ecx
	push	esi
	push	edi
	mov	edi, DWORD PTR __c$[ebp]
	push	ebx
	push	DWORD PTR __id$[ebp]
	mov	DWORD PTR _this$1$[ebp], eax
	push	edi
	call	DWORD PTR __imp_?qt_metacall@QMainWindow@@UAEHW4Call@QMetaObject@@HPAPAX@Z
	mov	esi, eax
; Line 152
	test	esi, esi
	js	SHORT $LN1@qt_metacal
; Line 154
	test	edi, edi
	jne	SHORT $LN3@qt_metacal
; Line 155
	cmp	esi, 11					; 0000000bH
	jge	SHORT $LN7@qt_metacal
; Line 156
	push	ebx
	push	esi
	push	edi
	push	DWORD PTR _this$1$[ebp]
	call	?qt_static_metacall@qFailSafeWin@@CAXPAVQObject@@W4Call@QMetaObject@@HPAPAX@Z ; qFailSafeWin::qt_static_metacall
	add	esp, 16					; 00000010H
; Line 163
	sub	esi, 11					; 0000000bH
	mov	eax, esi
	pop	edi
; Line 164
	pop	esi
	pop	ebx
	mov	esp, ebp
	pop	ebp
	ret	12					; 0000000cH
$LN3@qt_metacal:
; Line 158
	cmp	edi, 12					; 0000000cH
	jne	SHORT $LN6@qt_metacal
; Line 159
	cmp	esi, 11					; 0000000bH
	jge	SHORT $LN7@qt_metacal
; Line 160
	mov	eax, DWORD PTR [ebx]
	mov	DWORD PTR [eax], -1
$LN7@qt_metacal:
; Line 163
	sub	esi, 11					; 0000000bH
$LN6@qt_metacal:
	mov	eax, esi
$LN1@qt_metacal:
	pop	edi
; Line 164
	pop	esi
	pop	ebx
	mov	esp, ebp
	pop	ebp
	ret	12					; 0000000cH
?qt_metacall@qFailSafeWin@@UAEHW4Call@QMetaObject@@HPAPAX@Z ENDP ; qFailSafeWin::qt_metacall
_TEXT	ENDS
; Function compile flags: /Ogtp
;	COMDAT ?qt_metacast@qFailSafeWin@@UAEPAXPBD@Z
_TEXT	SEGMENT
__clname$ = 8						; size = 4
?qt_metacast@qFailSafeWin@@UAEPAXPBD@Z PROC		; qFailSafeWin::qt_metacast, COMDAT
; _this$ = ecx
; File c:\users\unm\documents\github\cacode\src\failsafec\generatedfiles\release\moc_qfailsafewin.cpp
; Line 142
	push	ebp
	mov	ebp, esp
	push	esi
; Line 143
	mov	esi, DWORD PTR __clname$[ebp]
	push	edi
	mov	edi, ecx
	test	esi, esi
	jne	SHORT $LN2@qt_metacas
	pop	edi
	xor	eax, eax
; Line 147
	pop	esi
	pop	ebp
	ret	4
$LN2@qt_metacas:
; Line 144
	mov	eax, OFFSET ?qt_meta_stringdata_qFailSafeWin@@3Uqt_meta_stringdata_qFailSafeWin_t@@B+240
	mov	ecx, esi
	npad	3
$LL5@qt_metacas:
	mov	dl, BYTE PTR [ecx]
	cmp	dl, BYTE PTR [eax]
	jne	SHORT $LN6@qt_metacas
	test	dl, dl
	je	SHORT $LN7@qt_metacas
	mov	dl, BYTE PTR [ecx+1]
	cmp	dl, BYTE PTR [eax+1]
	jne	SHORT $LN6@qt_metacas
	add	ecx, 2
	add	eax, 2
	test	dl, dl
	jne	SHORT $LL5@qt_metacas
$LN7@qt_metacas:
	xor	eax, eax
	jmp	SHORT $LN8@qt_metacas
$LN6@qt_metacas:
	sbb	eax, eax
	or	eax, 1
$LN8@qt_metacas:
	test	eax, eax
	jne	SHORT $LN3@qt_metacas
; Line 145
	mov	eax, edi
	pop	edi
; Line 147
	pop	esi
	pop	ebp
	ret	4
$LN3@qt_metacas:
; Line 146
	push	esi
	mov	ecx, edi
	call	DWORD PTR __imp_?qt_metacast@QMainWindow@@UAEPAXPBD@Z
	pop	edi
; Line 147
	pop	esi
	pop	ebp
	ret	4
?qt_metacast@qFailSafeWin@@UAEPAXPBD@Z ENDP		; qFailSafeWin::qt_metacast
_TEXT	ENDS
; Function compile flags: /Ogtp
;	COMDAT ?metaObject@qFailSafeWin@@UBEPBUQMetaObject@@XZ
_TEXT	SEGMENT
?metaObject@qFailSafeWin@@UBEPBUQMetaObject@@XZ PROC	; qFailSafeWin::metaObject, COMDAT
; _this$ = ecx
; File c:\users\unm\documents\github\cacode\src\failsafec\generatedfiles\release\moc_qfailsafewin.cpp
; Line 138
	mov	ecx, DWORD PTR [ecx+4]
	cmp	DWORD PTR [ecx+24], 0
	je	SHORT $LN3@metaObject
	jmp	DWORD PTR __imp_?dynamicMetaObject@QObjectData@@QBEPAUQMetaObject@@XZ
$LN3@metaObject:
	mov	eax, OFFSET ?staticMetaObject@qFailSafeWin@@2UQMetaObject@@B ; qFailSafeWin::staticMetaObject
; Line 139
	ret	0
?metaObject@qFailSafeWin@@UBEPBUQMetaObject@@XZ ENDP	; qFailSafeWin::metaObject
_TEXT	ENDS
; Function compile flags: /Ogtp
;	COMDAT ??C?$QScopedPointer@VQObjectData@@U?$QScopedPointerDeleter@VQObjectData@@@@@@QBEPAVQObjectData@@XZ
_TEXT	SEGMENT
??C?$QScopedPointer@VQObjectData@@U?$QScopedPointerDeleter@VQObjectData@@@@@@QBEPAVQObjectData@@XZ PROC ; QScopedPointer<QObjectData,QScopedPointerDeleter<QObjectData> >::operator->, COMDAT
; _this$ = ecx
; File c:\qt\5.13.1\msvc2017\include\qtcore\qscopedpointer.h
; Line 118
	mov	eax, DWORD PTR [ecx]
; Line 119
	ret	0
??C?$QScopedPointer@VQObjectData@@U?$QScopedPointerDeleter@VQObjectData@@@@@@QBEPAVQObjectData@@XZ ENDP ; QScopedPointer<QObjectData,QScopedPointerDeleter<QObjectData> >::operator->
_TEXT	ENDS
END
