; Listing generated by Microsoft (R) Optimizing Compiler Version 19.16.27032.1 

	TITLE	C:\Users\unm\Documents\GitHub\caCode\src\failSafeC\GeneratedFiles\Release\moc_qTestFailSafePage.cpp
	.686P
	.XMM
	include listing.inc
	.model	flat

INCLUDELIB MSVCRT
INCLUDELIB OLDNAMES

EXTRN	__imp_?staticMetaObject@QWizardPage@@2UQMetaObject@@B:BYTE
CONST	SEGMENT
?qt_meta_stringdata_qTestFailSafePage@@3Uqt_meta_stringdata_qTestFailSafePage_t@@B DD 0ffffffffH ; qt_meta_stringdata_qTestFailSafePage
	DD	011H
	DD	00H
	DD	040H
	DD	0ffffffffH
	DD	0cH
	DD	00H
	DD	042H
	DD	0ffffffffH
	DD	00H
	DD	00H
	DD	03fH
	DD	0ffffffffH
	DD	0eH
	DD	00H
	DD	030H
	DB	071H
	DB	054H
	DB	065H
	DB	073H
	DB	074H
	DB	046H
	DB	061H
	DB	069H
	DB	06cH
	DB	053H
	DB	061H
	DB	066H
	DB	065H
	DB	050H
	DB	061H
	DB	067H
	DB	065H
	DB	00H
	DB	074H
	DB	065H
	DB	073H
	DB	074H
	DB	042H
	DB	069H
	DB	067H
	DB	053H
	DB	070H
	DB	069H
	DB	06bH
	DB	065H
	DB	00H
	DB	00H
	DB	074H
	DB	065H
	DB	073H
	DB	074H
	DB	042H
	DB	069H
	DB	067H
	DB	056H
	DB	06fH
	DB	06cH
	DB	074H
	DB	061H
	DB	067H
	DB	065H
	DB	00H
	ORG $+1
?qt_meta_data_qTestFailSafePage@@3QBIB DD 08H		; qt_meta_data_qTestFailSafePage
	DD	00H
	DD	00H
	DD	00H
	DD	02H
	DD	0eH
	DD	00H
	DD	00H
	DD	00H
	DD	00H
	DD	00H
	DD	00H
	DD	00H
	DD	00H
	DD	01H
	DD	00H
	DD	018H
	DD	02H
	DD	08H
	DD	03H
	DD	00H
	DD	019H
	DD	02H
	DD	08H
	DD	02bH
	DD	02bH
	DD	00H
CONST	ENDS
PUBLIC	?metaObject@qTestFailSafePage@@UBEPBUQMetaObject@@XZ ; qTestFailSafePage::metaObject
PUBLIC	?qt_metacast@qTestFailSafePage@@UAEPAXPBD@Z	; qTestFailSafePage::qt_metacast
PUBLIC	?qt_metacall@qTestFailSafePage@@UAEHW4Call@QMetaObject@@HPAPAX@Z ; qTestFailSafePage::qt_metacall
PUBLIC	?qt_static_metacall@qTestFailSafePage@@CAXPAVQObject@@W4Call@QMetaObject@@HPAPAX@Z ; qTestFailSafePage::qt_static_metacall
PUBLIC	?staticMetaObject@qTestFailSafePage@@2UQMetaObject@@B ; qTestFailSafePage::staticMetaObject
EXTRN	__imp_?dynamicMetaObject@QObjectData@@QBEPAUQMetaObject@@XZ:PROC
EXTRN	__imp_?qt_metacast@QWizardPage@@UAEPAXPBD@Z:PROC
EXTRN	__imp_?qt_metacall@QWizardPage@@UAEHW4Call@QMetaObject@@HPAPAX@Z:PROC
EXTRN	?testBigSpike@qTestFailSafePage@@AAEXXZ:PROC	; qTestFailSafePage::testBigSpike
EXTRN	?testBigVoltage@qTestFailSafePage@@AAEXXZ:PROC	; qTestFailSafePage::testBigVoltage
CRT$XCU	SEGMENT
??staticMetaObject$initializer$@qTestFailSafePage@@2P6AXXZA@@3P6AXXZA DD FLAT:??__E?staticMetaObject@qTestFailSafePage@@2UQMetaObject@@B@@YAXXZ ; ??staticMetaObject$initializer$@qTestFailSafePage@@2P6AXXZA@@3P6AXXZA
CRT$XCU	ENDS
_DATA	SEGMENT
?staticMetaObject@qTestFailSafePage@@2UQMetaObject@@B DB 4 DUP(00H) ; qTestFailSafePage::staticMetaObject
	DD	FLAT:?qt_meta_stringdata_qTestFailSafePage@@3Uqt_meta_stringdata_qTestFailSafePage_t@@B
	DD	FLAT:?qt_meta_data_qTestFailSafePage@@3QBIB
	DD	FLAT:?qt_static_metacall@qTestFailSafePage@@CAXPAVQObject@@W4Call@QMetaObject@@HPAPAX@Z
	DD	00H
	DD	00H
_DATA	ENDS
; Function compile flags: /Ogtp
;	COMDAT ??__E?staticMetaObject@qTestFailSafePage@@2UQMetaObject@@B@@YAXXZ
text$di	SEGMENT
??__E?staticMetaObject@qTestFailSafePage@@2UQMetaObject@@B@@YAXXZ PROC ; `dynamic initializer for 'qTestFailSafePage::staticMetaObject'', COMDAT
; File c:\users\unm\documents\github\cacode\src\failsafec\generatedfiles\release\moc_qtestfailsafepage.cpp
; Line 85
	mov	eax, DWORD PTR __imp_?staticMetaObject@QWizardPage@@2UQMetaObject@@B
	mov	DWORD PTR ?staticMetaObject@qTestFailSafePage@@2UQMetaObject@@B, eax
; Line 90
	ret	0
??__E?staticMetaObject@qTestFailSafePage@@2UQMetaObject@@B@@YAXXZ ENDP ; `dynamic initializer for 'qTestFailSafePage::staticMetaObject''
text$di	ENDS
; Function compile flags: /Ogtp
;	COMDAT ?qt_static_metacall@qTestFailSafePage@@CAXPAVQObject@@W4Call@QMetaObject@@HPAPAX@Z
_TEXT	SEGMENT
__o$ = 8						; size = 4
__c$ = 12						; size = 4
__id$ = 16						; size = 4
__a$ = 20						; size = 4
?qt_static_metacall@qTestFailSafePage@@CAXPAVQObject@@W4Call@QMetaObject@@HPAPAX@Z PROC ; qTestFailSafePage::qt_static_metacall, COMDAT
; File c:\users\unm\documents\github\cacode\src\failsafec\generatedfiles\release\moc_qtestfailsafepage.cpp
; Line 71
	push	ebp
	mov	ebp, esp
; Line 72
	cmp	DWORD PTR __c$[ebp], 0
	jne	SHORT $LN7@qt_static_
; Line 75
	mov	eax, DWORD PTR __id$[ebp]
	sub	eax, 0
	je	SHORT $LN5@qt_static_
	sub	eax, 1
	jne	SHORT $LN7@qt_static_
; Line 77
	mov	ecx, DWORD PTR __o$[ebp]
; Line 82
	pop	ebp
; Line 77
	jmp	?testBigVoltage@qTestFailSafePage@@AAEXXZ ; qTestFailSafePage::testBigVoltage
$LN5@qt_static_:
; Line 76
	mov	ecx, DWORD PTR __o$[ebp]
; Line 82
	pop	ebp
; Line 76
	jmp	?testBigSpike@qTestFailSafePage@@AAEXXZ	; qTestFailSafePage::testBigSpike
$LN7@qt_static_:
; Line 82
	pop	ebp
	ret	0
?qt_static_metacall@qTestFailSafePage@@CAXPAVQObject@@W4Call@QMetaObject@@HPAPAX@Z ENDP ; qTestFailSafePage::qt_static_metacall
_TEXT	ENDS
; Function compile flags: /Ogtp
;	COMDAT ?qt_metacall@qTestFailSafePage@@UAEHW4Call@QMetaObject@@HPAPAX@Z
_TEXT	SEGMENT
__c$ = 8						; size = 4
__id$ = 12						; size = 4
__a$ = 16						; size = 4
?qt_metacall@qTestFailSafePage@@UAEHW4Call@QMetaObject@@HPAPAX@Z PROC ; qTestFailSafePage::qt_metacall, COMDAT
; _this$ = ecx
; File c:\users\unm\documents\github\cacode\src\failsafec\generatedfiles\release\moc_qtestfailsafepage.cpp
; Line 108
	push	ebp
	mov	ebp, esp
	push	ebx
	push	esi
	push	edi
; Line 109
	push	DWORD PTR __a$[ebp]
	mov	edi, DWORD PTR __c$[ebp]
	mov	ebx, ecx
	push	DWORD PTR __id$[ebp]
	push	edi
	call	DWORD PTR __imp_?qt_metacall@QWizardPage@@UAEHW4Call@QMetaObject@@HPAPAX@Z
	mov	esi, eax
; Line 110
	test	esi, esi
	js	SHORT $LN1@qt_metacal
; Line 112
	test	edi, edi
	jne	SHORT $LN3@qt_metacal
; Line 113
	cmp	esi, 2
	jge	SHORT $LN7@qt_metacal
; Line 75
	sub	eax, edi
	je	SHORT $LN13@qt_metacal
	sub	eax, 1
	jne	SHORT $LN7@qt_metacal
; Line 77
	mov	ecx, ebx
	call	?testBigVoltage@qTestFailSafePage@@AAEXXZ ; qTestFailSafePage::testBigVoltage
; Line 121
	sub	esi, 2
	pop	edi
	mov	eax, esi
; Line 122
	pop	esi
	pop	ebx
	pop	ebp
	ret	12					; 0000000cH
$LN13@qt_metacal:
; Line 76
	mov	ecx, ebx
	call	?testBigSpike@qTestFailSafePage@@AAEXXZ	; qTestFailSafePage::testBigSpike
; Line 121
	sub	esi, 2
	pop	edi
	mov	eax, esi
; Line 122
	pop	esi
	pop	ebx
	pop	ebp
	ret	12					; 0000000cH
$LN3@qt_metacal:
; Line 116
	cmp	edi, 12					; 0000000cH
	jne	SHORT $LN6@qt_metacal
; Line 117
	cmp	esi, 2
	jge	SHORT $LN7@qt_metacal
; Line 118
	mov	eax, DWORD PTR __a$[ebp]
	mov	eax, DWORD PTR [eax]
	mov	DWORD PTR [eax], -1
$LN7@qt_metacal:
; Line 121
	sub	esi, 2
$LN6@qt_metacal:
	mov	eax, esi
$LN1@qt_metacal:
	pop	edi
; Line 122
	pop	esi
	pop	ebx
	pop	ebp
	ret	12					; 0000000cH
?qt_metacall@qTestFailSafePage@@UAEHW4Call@QMetaObject@@HPAPAX@Z ENDP ; qTestFailSafePage::qt_metacall
_TEXT	ENDS
; Function compile flags: /Ogtp
;	COMDAT ?qt_metacast@qTestFailSafePage@@UAEPAXPBD@Z
_TEXT	SEGMENT
__clname$ = 8						; size = 4
?qt_metacast@qTestFailSafePage@@UAEPAXPBD@Z PROC	; qTestFailSafePage::qt_metacast, COMDAT
; _this$ = ecx
; File c:\users\unm\documents\github\cacode\src\failsafec\generatedfiles\release\moc_qtestfailsafepage.cpp
; Line 100
	push	ebp
	mov	ebp, esp
	push	esi
; Line 101
	mov	esi, DWORD PTR __clname$[ebp]
	push	edi
	mov	edi, ecx
	test	esi, esi
	jne	SHORT $LN2@qt_metacas
	pop	edi
	xor	eax, eax
; Line 105
	pop	esi
	pop	ebp
	ret	4
$LN2@qt_metacas:
; Line 102
	mov	eax, OFFSET ?qt_meta_stringdata_qTestFailSafePage@@3Uqt_meta_stringdata_qTestFailSafePage_t@@B+64
	mov	ecx, esi
	npad	3
$LL5@qt_metacas:
	mov	dl, BYTE PTR [ecx]
	cmp	dl, BYTE PTR [eax]
	jne	SHORT $LN6@qt_metacas
	test	dl, dl
	je	SHORT $LN7@qt_metacas
	mov	dl, BYTE PTR [ecx+1]
	cmp	dl, BYTE PTR [eax+1]
	jne	SHORT $LN6@qt_metacas
	add	ecx, 2
	add	eax, 2
	test	dl, dl
	jne	SHORT $LL5@qt_metacas
$LN7@qt_metacas:
	xor	eax, eax
	jmp	SHORT $LN8@qt_metacas
$LN6@qt_metacas:
	sbb	eax, eax
	or	eax, 1
$LN8@qt_metacas:
	test	eax, eax
	jne	SHORT $LN3@qt_metacas
; Line 103
	mov	eax, edi
	pop	edi
; Line 105
	pop	esi
	pop	ebp
	ret	4
$LN3@qt_metacas:
; Line 104
	push	esi
	mov	ecx, edi
	call	DWORD PTR __imp_?qt_metacast@QWizardPage@@UAEPAXPBD@Z
	pop	edi
; Line 105
	pop	esi
	pop	ebp
	ret	4
?qt_metacast@qTestFailSafePage@@UAEPAXPBD@Z ENDP	; qTestFailSafePage::qt_metacast
_TEXT	ENDS
; Function compile flags: /Ogtp
;	COMDAT ?metaObject@qTestFailSafePage@@UBEPBUQMetaObject@@XZ
_TEXT	SEGMENT
?metaObject@qTestFailSafePage@@UBEPBUQMetaObject@@XZ PROC ; qTestFailSafePage::metaObject, COMDAT
; _this$ = ecx
; File c:\users\unm\documents\github\cacode\src\failsafec\generatedfiles\release\moc_qtestfailsafepage.cpp
; Line 96
	mov	ecx, DWORD PTR [ecx+4]
	cmp	DWORD PTR [ecx+24], 0
	je	SHORT $LN3@metaObject
	jmp	DWORD PTR __imp_?dynamicMetaObject@QObjectData@@QBEPAUQMetaObject@@XZ
$LN3@metaObject:
	mov	eax, OFFSET ?staticMetaObject@qTestFailSafePage@@2UQMetaObject@@B ; qTestFailSafePage::staticMetaObject
; Line 97
	ret	0
?metaObject@qTestFailSafePage@@UBEPBUQMetaObject@@XZ ENDP ; qTestFailSafePage::metaObject
_TEXT	ENDS
; Function compile flags: /Ogtp
;	COMDAT ??C?$QScopedPointer@VQObjectData@@U?$QScopedPointerDeleter@VQObjectData@@@@@@QBEPAVQObjectData@@XZ
_TEXT	SEGMENT
??C?$QScopedPointer@VQObjectData@@U?$QScopedPointerDeleter@VQObjectData@@@@@@QBEPAVQObjectData@@XZ PROC ; QScopedPointer<QObjectData,QScopedPointerDeleter<QObjectData> >::operator->, COMDAT
; _this$ = ecx
; File c:\qt\5.13.1\msvc2017\include\qtcore\qscopedpointer.h
; Line 118
	mov	eax, DWORD PTR [ecx]
; Line 119
	ret	0
??C?$QScopedPointer@VQObjectData@@U?$QScopedPointerDeleter@VQObjectData@@@@@@QBEPAVQObjectData@@XZ ENDP ; QScopedPointer<QObjectData,QScopedPointerDeleter<QObjectData> >::operator->
_TEXT	ENDS
END
