; Listing generated by Microsoft (R) Optimizing Compiler Version 19.16.27032.1 

	TITLE	C:\Users\unm\Documents\GitHub\caCode\src\failSafeC\GeneratedFiles\Release\moc_qAIConsumerThread.cpp
	.686P
	.XMM
	include listing.inc
	.model	flat

INCLUDELIB MSVCRT
INCLUDELIB OLDNAMES

EXTRN	__imp_?staticMetaObject@QThread@@2UQMetaObject@@B:BYTE
CONST	SEGMENT
?qt_meta_stringdata_qAIConsumerThread@@3Uqt_meta_stringdata_qAIConsumerThread_t@@B DD 0ffffffffH ; qt_meta_stringdata_qAIConsumerThread
	DD	011H
	DD	00H
	DD	080H
	DD	0ffffffffH
	DD	0dH
	DD	00H
	DD	082H
	DD	0ffffffffH
	DD	00H
	DD	00H
	DD	080H
	DD	0ffffffffH
	DD	01H
	DD	00H
	DD	071H
	DD	0ffffffffH
	DD	0bH
	DD	00H
	DD	063H
	DD	0ffffffffH
	DD	05H
	DD	00H
	DD	05fH
	DD	0ffffffffH
	DD	0dH
	DD	00H
	DD	055H
	DD	0ffffffffH
	DD	0fH
	DD	00H
	DD	053H
	DB	071H
	DB	041H
	DB	049H
	DB	043H
	DB	06fH
	DB	06eH
	DB	073H
	DB	075H
	DB	06dH
	DB	065H
	DB	072H
	DB	054H
	DB	068H
	DB	072H
	DB	065H
	DB	061H
	DB	064H
	DB	00H
	DB	061H
	DB	062H
	DB	06eH
	DB	06fH
	DB	072H
	DB	06dH
	DB	056H
	DB	06fH
	DB	06cH
	DB	074H
	DB	061H
	DB	067H
	DB	065H
	DB	00H
	DB	00H
	DB	076H
	DB	00H
	DB	061H
	DB	062H
	DB	06eH
	DB	06fH
	DB	072H
	DB	06dH
	DB	049H
	DB	073H
	DB	070H
	DB	074H
	DB	061H
	DB	00H
	DB	069H
	DB	073H
	DB	070H
	DB	074H
	DB	061H
	DB	00H
	DB	074H
	DB	068H
	DB	072H
	DB	065H
	DB	061H
	DB	064H
	DB	053H
	DB	074H
	DB	061H
	DB	072H
	DB	074H
	DB	065H
	DB	064H
	DB	00H
	DB	061H
	DB	06cH
	DB	06cH
	DB	044H
	DB	061H
	DB	074H
	DB	061H
	DB	041H
	DB	063H
	DB	071H
	DB	075H
	DB	069H
	DB	072H
	DB	065H
	DB	064H
	DB	00H
	ORG $+1
	ORG $+4
?qt_meta_data_qAIConsumerThread@@3QBIB DD 08H		; qt_meta_data_qAIConsumerThread
	DD	00H
	DD	00H
	DD	00H
	DD	04H
	DD	0eH
	DD	00H
	DD	00H
	DD	00H
	DD	00H
	DD	00H
	DD	00H
	DD	00H
	DD	04H
	DD	01H
	DD	01H
	DD	022H
	DD	02H
	DD	06H
	DD	04H
	DD	01H
	DD	025H
	DD	02H
	DD	06H
	DD	06H
	DD	00H
	DD	028H
	DD	02H
	DD	06H
	DD	07H
	DD	00H
	DD	029H
	DD	02H
	DD	06H
	DD	02bH
	DD	06H
	DD	03H
	DD	02bH
	DD	06H
	DD	05H
	DD	02bH
	DD	02bH
	DD	00H
CONST	ENDS
PUBLIC	?metaObject@qAIConsumerThread@@UBEPBUQMetaObject@@XZ ; qAIConsumerThread::metaObject
PUBLIC	?qt_metacast@qAIConsumerThread@@UAEPAXPBD@Z	; qAIConsumerThread::qt_metacast
PUBLIC	?qt_metacall@qAIConsumerThread@@UAEHW4Call@QMetaObject@@HPAPAX@Z ; qAIConsumerThread::qt_metacall
PUBLIC	?qt_static_metacall@qAIConsumerThread@@CAXPAVQObject@@W4Call@QMetaObject@@HPAPAX@Z ; qAIConsumerThread::qt_static_metacall
PUBLIC	?abnormVoltage@qAIConsumerThread@@QAEXN@Z	; qAIConsumerThread::abnormVoltage
PUBLIC	?abnormIspta@qAIConsumerThread@@QAEXN@Z		; qAIConsumerThread::abnormIspta
PUBLIC	?threadStarted@qAIConsumerThread@@QAEXXZ	; qAIConsumerThread::threadStarted
PUBLIC	?allDataAcquired@qAIConsumerThread@@QAEXXZ	; qAIConsumerThread::allDataAcquired
PUBLIC	?staticMetaObject@qAIConsumerThread@@2UQMetaObject@@B ; qAIConsumerThread::staticMetaObject
EXTRN	__imp_?activate@QMetaObject@@SAXPAVQObject@@PBU1@HPAPAX@Z:PROC
EXTRN	__imp_?dynamicMetaObject@QObjectData@@QBEPAUQMetaObject@@XZ:PROC
EXTRN	__imp_?qt_metacast@QThread@@UAEPAXPBD@Z:PROC
EXTRN	__imp_?qt_metacall@QThread@@UAEHW4Call@QMetaObject@@HPAPAX@Z:PROC
EXTRN	__fltused:DWORD
CRT$XCU	SEGMENT
??staticMetaObject$initializer$@qAIConsumerThread@@2P6AXXZA@@3P6AXXZA DD FLAT:??__E?staticMetaObject@qAIConsumerThread@@2UQMetaObject@@B@@YAXXZ ; ??staticMetaObject$initializer$@qAIConsumerThread@@2P6AXXZA@@3P6AXXZA
CRT$XCU	ENDS
_DATA	SEGMENT
?staticMetaObject@qAIConsumerThread@@2UQMetaObject@@B DB 4 DUP(00H) ; qAIConsumerThread::staticMetaObject
	DD	FLAT:?qt_meta_stringdata_qAIConsumerThread@@3Uqt_meta_stringdata_qAIConsumerThread_t@@B
	DD	FLAT:?qt_meta_data_qAIConsumerThread@@3QBIB
	DD	FLAT:?qt_static_metacall@qAIConsumerThread@@CAXPAVQObject@@W4Call@QMetaObject@@HPAPAX@Z
	DD	00H
	DD	00H
_DATA	ENDS
; Function compile flags: /Ogtp
;	COMDAT ??$addressof@N@std@@YAPANAAN@Z
_TEXT	SEGMENT
__Val$ = 8						; size = 4
??$addressof@N@std@@YAPANAAN@Z PROC			; std::addressof<double>, COMDAT
; File c:\program files (x86)\microsoft visual studio\2017\community\vc\tools\msvc\14.16.27023\include\xstddef
; Line 329
	push	ebp
	mov	ebp, esp
; Line 330
	mov	eax, DWORD PTR __Val$[ebp]
; Line 331
	pop	ebp
	ret	0
??$addressof@N@std@@YAPANAAN@Z ENDP			; std::addressof<double>
_TEXT	ENDS
; Function compile flags: /Ogtp
;	COMDAT ??__E?staticMetaObject@qAIConsumerThread@@2UQMetaObject@@B@@YAXXZ
text$di	SEGMENT
??__E?staticMetaObject@qAIConsumerThread@@2UQMetaObject@@B@@YAXXZ PROC ; `dynamic initializer for 'qAIConsumerThread::staticMetaObject'', COMDAT
; File c:\users\unm\documents\github\cacode\src\failsafec\generatedfiles\release\moc_qaiconsumerthread.cpp
; Line 125
	mov	eax, DWORD PTR __imp_?staticMetaObject@QThread@@2UQMetaObject@@B
	mov	DWORD PTR ?staticMetaObject@qAIConsumerThread@@2UQMetaObject@@B, eax
; Line 130
	ret	0
??__E?staticMetaObject@qAIConsumerThread@@2UQMetaObject@@B@@YAXXZ ENDP ; `dynamic initializer for 'qAIConsumerThread::staticMetaObject''
text$di	ENDS
; Function compile flags: /Ogtp
;	COMDAT ?allDataAcquired@qAIConsumerThread@@QAEXXZ
_TEXT	SEGMENT
?allDataAcquired@qAIConsumerThread@@QAEXXZ PROC		; qAIConsumerThread::allDataAcquired, COMDAT
; _this$ = ecx
; File c:\users\unm\documents\github\cacode\src\failsafec\generatedfiles\release\moc_qaiconsumerthread.cpp
; Line 187
	push	0
	push	3
	push	OFFSET ?staticMetaObject@qAIConsumerThread@@2UQMetaObject@@B ; qAIConsumerThread::staticMetaObject
	push	ecx
	call	DWORD PTR __imp_?activate@QMetaObject@@SAXPAVQObject@@PBU1@HPAPAX@Z
	add	esp, 16					; 00000010H
; Line 188
	ret	0
?allDataAcquired@qAIConsumerThread@@QAEXXZ ENDP		; qAIConsumerThread::allDataAcquired
_TEXT	ENDS
; Function compile flags: /Ogtp
;	COMDAT ?threadStarted@qAIConsumerThread@@QAEXXZ
_TEXT	SEGMENT
?threadStarted@qAIConsumerThread@@QAEXXZ PROC		; qAIConsumerThread::threadStarted, COMDAT
; _this$ = ecx
; File c:\users\unm\documents\github\cacode\src\failsafec\generatedfiles\release\moc_qaiconsumerthread.cpp
; Line 181
	push	0
	push	2
	push	OFFSET ?staticMetaObject@qAIConsumerThread@@2UQMetaObject@@B ; qAIConsumerThread::staticMetaObject
	push	ecx
	call	DWORD PTR __imp_?activate@QMetaObject@@SAXPAVQObject@@PBU1@HPAPAX@Z
	add	esp, 16					; 00000010H
; Line 182
	ret	0
?threadStarted@qAIConsumerThread@@QAEXXZ ENDP		; qAIConsumerThread::threadStarted
_TEXT	ENDS
; Function compile flags: /Ogtp
;	COMDAT ?abnormIspta@qAIConsumerThread@@QAEXN@Z
_TEXT	SEGMENT
__a$ = -8						; size = 8
__t1$ = 8						; size = 8
?abnormIspta@qAIConsumerThread@@QAEXN@Z PROC		; qAIConsumerThread::abnormIspta, COMDAT
; _this$ = ecx
; File c:\users\unm\documents\github\cacode\src\failsafec\generatedfiles\release\moc_qaiconsumerthread.cpp
; Line 173
	push	ebp
	mov	ebp, esp
	sub	esp, 8
; File c:\program files (x86)\microsoft visual studio\2017\community\vc\tools\msvc\14.16.27023\include\xstddef
; Line 330
	lea	eax, DWORD PTR __t1$[ebp]
; File c:\users\unm\documents\github\cacode\src\failsafec\generatedfiles\release\moc_qaiconsumerthread.cpp
; Line 174
	mov	DWORD PTR __a$[ebp], 0
; File c:\program files (x86)\microsoft visual studio\2017\community\vc\tools\msvc\14.16.27023\include\xstddef
; Line 330
	mov	DWORD PTR __a$[ebp+4], eax
; File c:\users\unm\documents\github\cacode\src\failsafec\generatedfiles\release\moc_qaiconsumerthread.cpp
; Line 175
	lea	eax, DWORD PTR __a$[ebp]
	push	eax
	push	1
	push	OFFSET ?staticMetaObject@qAIConsumerThread@@2UQMetaObject@@B ; qAIConsumerThread::staticMetaObject
	push	ecx
	call	DWORD PTR __imp_?activate@QMetaObject@@SAXPAVQObject@@PBU1@HPAPAX@Z
	add	esp, 16					; 00000010H
; Line 176
	mov	esp, ebp
	pop	ebp
	ret	8
?abnormIspta@qAIConsumerThread@@QAEXN@Z ENDP		; qAIConsumerThread::abnormIspta
_TEXT	ENDS
; Function compile flags: /Ogtp
;	COMDAT ?abnormVoltage@qAIConsumerThread@@QAEXN@Z
_TEXT	SEGMENT
__a$ = -8						; size = 8
__t1$ = 8						; size = 8
?abnormVoltage@qAIConsumerThread@@QAEXN@Z PROC		; qAIConsumerThread::abnormVoltage, COMDAT
; _this$ = ecx
; File c:\users\unm\documents\github\cacode\src\failsafec\generatedfiles\release\moc_qaiconsumerthread.cpp
; Line 166
	push	ebp
	mov	ebp, esp
	sub	esp, 8
; File c:\program files (x86)\microsoft visual studio\2017\community\vc\tools\msvc\14.16.27023\include\xstddef
; Line 330
	lea	eax, DWORD PTR __t1$[ebp]
; File c:\users\unm\documents\github\cacode\src\failsafec\generatedfiles\release\moc_qaiconsumerthread.cpp
; Line 167
	mov	DWORD PTR __a$[ebp], 0
; File c:\program files (x86)\microsoft visual studio\2017\community\vc\tools\msvc\14.16.27023\include\xstddef
; Line 330
	mov	DWORD PTR __a$[ebp+4], eax
; File c:\users\unm\documents\github\cacode\src\failsafec\generatedfiles\release\moc_qaiconsumerthread.cpp
; Line 168
	lea	eax, DWORD PTR __a$[ebp]
	push	eax
	push	0
	push	OFFSET ?staticMetaObject@qAIConsumerThread@@2UQMetaObject@@B ; qAIConsumerThread::staticMetaObject
	push	ecx
	call	DWORD PTR __imp_?activate@QMetaObject@@SAXPAVQObject@@PBU1@HPAPAX@Z
	add	esp, 16					; 00000010H
; Line 169
	mov	esp, ebp
	pop	ebp
	ret	8
?abnormVoltage@qAIConsumerThread@@QAEXN@Z ENDP		; qAIConsumerThread::abnormVoltage
_TEXT	ENDS
; Function compile flags: /Ogtp
;	COMDAT ?qt_static_metacall@qAIConsumerThread@@CAXPAVQObject@@W4Call@QMetaObject@@HPAPAX@Z
_TEXT	SEGMENT
__o$ = 8						; size = 4
__c$ = 12						; size = 4
__id$ = 16						; size = 4
__a$ = 20						; size = 4
?qt_static_metacall@qAIConsumerThread@@CAXPAVQObject@@W4Call@QMetaObject@@HPAPAX@Z PROC ; qAIConsumerThread::qt_static_metacall, COMDAT
; File c:\users\unm\documents\github\cacode\src\failsafec\generatedfiles\release\moc_qaiconsumerthread.cpp
; Line 80
	push	ebp
	mov	ebp, esp
; Line 81
	mov	eax, DWORD PTR __c$[ebp]
	test	eax, eax
	jne	$LN4@qt_static_
; Line 84
	mov	eax, DWORD PTR __id$[ebp]
	cmp	eax, 3
	ja	$LN15@qt_static_
	jmp	DWORD PTR $LN23@qt_static_[eax*4]
$LN6@qt_static_:
; Line 85
	mov	eax, DWORD PTR __a$[ebp]
	sub	esp, 8
	mov	ecx, DWORD PTR __o$[ebp]
	mov	eax, DWORD PTR [eax+4]
	movsd	xmm0, QWORD PTR [eax]
	movsd	QWORD PTR [esp], xmm0
	call	?abnormVoltage@qAIConsumerThread@@QAEXN@Z ; qAIConsumerThread::abnormVoltage
; Line 122
	pop	ebp
	ret	0
$LN7@qt_static_:
; Line 86
	mov	eax, DWORD PTR __a$[ebp]
	sub	esp, 8
	mov	ecx, DWORD PTR __o$[ebp]
	mov	eax, DWORD PTR [eax+4]
	movsd	xmm0, QWORD PTR [eax]
	movsd	QWORD PTR [esp], xmm0
	call	?abnormIspta@qAIConsumerThread@@QAEXN@Z	; qAIConsumerThread::abnormIspta
; Line 122
	pop	ebp
	ret	0
$LN8@qt_static_:
; Line 181
	mov	DWORD PTR __a$[ebp], 0
	mov	DWORD PTR __id$[ebp], 2
	mov	DWORD PTR __c$[ebp], OFFSET ?staticMetaObject@qAIConsumerThread@@2UQMetaObject@@B ; qAIConsumerThread::staticMetaObject
; Line 122
	pop	ebp
; Line 181
	jmp	DWORD PTR __imp_?activate@QMetaObject@@SAXPAVQObject@@PBU1@HPAPAX@Z
$LN9@qt_static_:
; Line 187
	mov	DWORD PTR __a$[ebp], 0
	mov	DWORD PTR __id$[ebp], 3
	mov	DWORD PTR __c$[ebp], OFFSET ?staticMetaObject@qAIConsumerThread@@2UQMetaObject@@B ; qAIConsumerThread::staticMetaObject
; Line 122
	pop	ebp
; Line 187
	jmp	DWORD PTR __imp_?activate@QMetaObject@@SAXPAVQObject@@PBU1@HPAPAX@Z
$LN4@qt_static_:
; Line 91
	cmp	eax, 10					; 0000000aH
	jne	SHORT $LN15@qt_static_
; Line 92
	mov	eax, DWORD PTR __a$[ebp]
	mov	ecx, DWORD PTR [eax]
; Line 95
	mov	eax, DWORD PTR [eax+4]
	mov	eax, DWORD PTR [eax]
	cmp	eax, OFFSET ?abnormVoltage@qAIConsumerThread@@QAEXN@Z ; qAIConsumerThread::abnormVoltage
	jne	SHORT $LN12@qt_static_
; Line 96
	mov	DWORD PTR [ecx], 0
; Line 122
	pop	ebp
	ret	0
$LN12@qt_static_:
; Line 102
	cmp	eax, OFFSET ?abnormIspta@qAIConsumerThread@@QAEXN@Z ; qAIConsumerThread::abnormIspta
	jne	SHORT $LN13@qt_static_
; Line 103
	mov	DWORD PTR [ecx], 1
; Line 122
	pop	ebp
	ret	0
$LN13@qt_static_:
; Line 109
	cmp	eax, OFFSET ?threadStarted@qAIConsumerThread@@QAEXXZ ; qAIConsumerThread::threadStarted
	jne	SHORT $LN14@qt_static_
; Line 110
	mov	DWORD PTR [ecx], 2
; Line 122
	pop	ebp
	ret	0
$LN14@qt_static_:
; Line 116
	cmp	eax, OFFSET ?allDataAcquired@qAIConsumerThread@@QAEXXZ ; qAIConsumerThread::allDataAcquired
	jne	SHORT $LN15@qt_static_
; Line 117
	mov	DWORD PTR [ecx], 3
$LN15@qt_static_:
; Line 122
	pop	ebp
	ret	0
$LN23@qt_static_:
	DD	$LN6@qt_static_
	DD	$LN7@qt_static_
	DD	$LN8@qt_static_
	DD	$LN9@qt_static_
?qt_static_metacall@qAIConsumerThread@@CAXPAVQObject@@W4Call@QMetaObject@@HPAPAX@Z ENDP ; qAIConsumerThread::qt_static_metacall
_TEXT	ENDS
; Function compile flags: /Ogtp
;	COMDAT ?qt_metacall@qAIConsumerThread@@UAEHW4Call@QMetaObject@@HPAPAX@Z
_TEXT	SEGMENT
_this$1$ = -4						; size = 4
__c$ = 8						; size = 4
__id$ = 12						; size = 4
__a$ = 16						; size = 4
?qt_metacall@qAIConsumerThread@@UAEHW4Call@QMetaObject@@HPAPAX@Z PROC ; qAIConsumerThread::qt_metacall, COMDAT
; _this$ = ecx
; File c:\users\unm\documents\github\cacode\src\failsafec\generatedfiles\release\moc_qaiconsumerthread.cpp
; Line 148
	push	ebp
	mov	ebp, esp
	push	ecx
	push	ebx
; Line 149
	mov	ebx, DWORD PTR __a$[ebp]
	mov	eax, ecx
	push	esi
	push	edi
	mov	edi, DWORD PTR __c$[ebp]
	push	ebx
	push	DWORD PTR __id$[ebp]
	mov	DWORD PTR _this$1$[ebp], eax
	push	edi
	call	DWORD PTR __imp_?qt_metacall@QThread@@UAEHW4Call@QMetaObject@@HPAPAX@Z
	mov	esi, eax
; Line 150
	test	esi, esi
	js	SHORT $LN1@qt_metacal
; Line 152
	test	edi, edi
	jne	SHORT $LN3@qt_metacal
; Line 153
	cmp	esi, 4
	jge	SHORT $LN7@qt_metacal
; Line 154
	push	ebx
	push	esi
	push	edi
	push	DWORD PTR _this$1$[ebp]
	call	?qt_static_metacall@qAIConsumerThread@@CAXPAVQObject@@W4Call@QMetaObject@@HPAPAX@Z ; qAIConsumerThread::qt_static_metacall
	add	esp, 16					; 00000010H
; Line 161
	sub	esi, 4
	mov	eax, esi
	pop	edi
; Line 162
	pop	esi
	pop	ebx
	mov	esp, ebp
	pop	ebp
	ret	12					; 0000000cH
$LN3@qt_metacal:
; Line 156
	cmp	edi, 12					; 0000000cH
	jne	SHORT $LN6@qt_metacal
; Line 157
	cmp	esi, 4
	jge	SHORT $LN7@qt_metacal
; Line 158
	mov	eax, DWORD PTR [ebx]
	mov	DWORD PTR [eax], -1
$LN7@qt_metacal:
; Line 161
	sub	esi, 4
$LN6@qt_metacal:
	mov	eax, esi
$LN1@qt_metacal:
	pop	edi
; Line 162
	pop	esi
	pop	ebx
	mov	esp, ebp
	pop	ebp
	ret	12					; 0000000cH
?qt_metacall@qAIConsumerThread@@UAEHW4Call@QMetaObject@@HPAPAX@Z ENDP ; qAIConsumerThread::qt_metacall
_TEXT	ENDS
; Function compile flags: /Ogtp
;	COMDAT ?qt_metacast@qAIConsumerThread@@UAEPAXPBD@Z
_TEXT	SEGMENT
__clname$ = 8						; size = 4
?qt_metacast@qAIConsumerThread@@UAEPAXPBD@Z PROC	; qAIConsumerThread::qt_metacast, COMDAT
; _this$ = ecx
; File c:\users\unm\documents\github\cacode\src\failsafec\generatedfiles\release\moc_qaiconsumerthread.cpp
; Line 140
	push	ebp
	mov	ebp, esp
	push	esi
; Line 141
	mov	esi, DWORD PTR __clname$[ebp]
	push	edi
	mov	edi, ecx
	test	esi, esi
	jne	SHORT $LN2@qt_metacas
	pop	edi
	xor	eax, eax
; Line 145
	pop	esi
	pop	ebp
	ret	4
$LN2@qt_metacas:
; Line 142
	mov	eax, OFFSET ?qt_meta_stringdata_qAIConsumerThread@@3Uqt_meta_stringdata_qAIConsumerThread_t@@B+128
	mov	ecx, esi
	npad	3
$LL5@qt_metacas:
	mov	dl, BYTE PTR [ecx]
	cmp	dl, BYTE PTR [eax]
	jne	SHORT $LN6@qt_metacas
	test	dl, dl
	je	SHORT $LN7@qt_metacas
	mov	dl, BYTE PTR [ecx+1]
	cmp	dl, BYTE PTR [eax+1]
	jne	SHORT $LN6@qt_metacas
	add	ecx, 2
	add	eax, 2
	test	dl, dl
	jne	SHORT $LL5@qt_metacas
$LN7@qt_metacas:
	xor	eax, eax
	jmp	SHORT $LN8@qt_metacas
$LN6@qt_metacas:
	sbb	eax, eax
	or	eax, 1
$LN8@qt_metacas:
	test	eax, eax
	jne	SHORT $LN3@qt_metacas
; Line 143
	mov	eax, edi
	pop	edi
; Line 145
	pop	esi
	pop	ebp
	ret	4
$LN3@qt_metacas:
; Line 144
	push	esi
	mov	ecx, edi
	call	DWORD PTR __imp_?qt_metacast@QThread@@UAEPAXPBD@Z
	pop	edi
; Line 145
	pop	esi
	pop	ebp
	ret	4
?qt_metacast@qAIConsumerThread@@UAEPAXPBD@Z ENDP	; qAIConsumerThread::qt_metacast
_TEXT	ENDS
; Function compile flags: /Ogtp
;	COMDAT ?metaObject@qAIConsumerThread@@UBEPBUQMetaObject@@XZ
_TEXT	SEGMENT
?metaObject@qAIConsumerThread@@UBEPBUQMetaObject@@XZ PROC ; qAIConsumerThread::metaObject, COMDAT
; _this$ = ecx
; File c:\users\unm\documents\github\cacode\src\failsafec\generatedfiles\release\moc_qaiconsumerthread.cpp
; Line 136
	mov	ecx, DWORD PTR [ecx+4]
	cmp	DWORD PTR [ecx+24], 0
	je	SHORT $LN3@metaObject
	jmp	DWORD PTR __imp_?dynamicMetaObject@QObjectData@@QBEPAUQMetaObject@@XZ
$LN3@metaObject:
	mov	eax, OFFSET ?staticMetaObject@qAIConsumerThread@@2UQMetaObject@@B ; qAIConsumerThread::staticMetaObject
; Line 137
	ret	0
?metaObject@qAIConsumerThread@@UBEPBUQMetaObject@@XZ ENDP ; qAIConsumerThread::metaObject
_TEXT	ENDS
; Function compile flags: /Ogtp
;	COMDAT ??C?$QScopedPointer@VQObjectData@@U?$QScopedPointerDeleter@VQObjectData@@@@@@QBEPAVQObjectData@@XZ
_TEXT	SEGMENT
??C?$QScopedPointer@VQObjectData@@U?$QScopedPointerDeleter@VQObjectData@@@@@@QBEPAVQObjectData@@XZ PROC ; QScopedPointer<QObjectData,QScopedPointerDeleter<QObjectData> >::operator->, COMDAT
; _this$ = ecx
; File c:\qt\5.13.1\msvc2017\include\qtcore\qscopedpointer.h
; Line 118
	mov	eax, DWORD PTR [ecx]
; Line 119
	ret	0
??C?$QScopedPointer@VQObjectData@@U?$QScopedPointerDeleter@VQObjectData@@@@@@QBEPAVQObjectData@@XZ ENDP ; QScopedPointer<QObjectData,QScopedPointerDeleter<QObjectData> >::operator->
_TEXT	ENDS
END
