; Listing generated by Microsoft (R) Optimizing Compiler Version 19.16.27032.1 

	TITLE	C:\Users\unm\Documents\GitHub\caCode\src\failSafeC\GeneratedFiles\Release\moc_qDOWriteThread.cpp
	.686P
	.XMM
	include listing.inc
	.model	flat

INCLUDELIB MSVCRT
INCLUDELIB OLDNAMES

EXTRN	__imp_?staticMetaObject@QObject@@2UQMetaObject@@B:BYTE
CONST	SEGMENT
?qt_meta_stringdata_qDOWriteThread@@3Uqt_meta_stringdata_qDOWriteThread_t@@B DD 0ffffffffH ; qt_meta_stringdata_qDOWriteThread
	DD	0eH
	DD	00H
	DD	0a0H
	DD	0ffffffffH
	DD	0dH
	DD	00H
	DD	09fH
	DD	0ffffffffH
	DD	00H
	DD	00H
	DD	09dH
	DD	0ffffffffH
	DD	08H
	DD	00H
	DD	08eH
	DD	0ffffffffH
	DD	01H
	DD	00H
	DD	087H
	DD	0ffffffffH
	DD	08H
	DD	00H
	DD	079H
	DD	0ffffffffH
	DD	09H
	DD	00H
	DD	072H
	DD	0ffffffffH
	DD	01H
	DD	00H
	DD	06cH
	DD	0ffffffffH
	DD	0aH
	DD	00H
	DD	05eH
	DD	0ffffffffH
	DD	0aH
	DD	00H
	DD	059H
	DB	071H
	DB	044H
	DB	04fH
	DB	057H
	DB	072H
	DB	069H
	DB	074H
	DB	065H
	DB	054H
	DB	068H
	DB	072H
	DB	065H
	DB	061H
	DB	064H
	DB	00H
	DB	074H
	DB	068H
	DB	072H
	DB	065H
	DB	061H
	DB	064H
	DB	053H
	DB	074H
	DB	061H
	DB	072H
	DB	074H
	DB	065H
	DB	064H
	DB	00H
	DB	00H
	DB	072H
	DB	065H
	DB	073H
	DB	070H
	DB	06fH
	DB	06eH
	DB	073H
	DB	065H
	DB	00H
	DB	073H
	DB	00H
	DB	065H
	DB	072H
	DB	072H
	DB	06fH
	DB	072H
	DB	04dH
	DB	073H
	DB	067H
	DB	00H
	DB	072H
	DB	065H
	DB	06cH
	DB	061H
	DB	079H
	DB	04fH
	DB	070H
	DB	065H
	DB	06eH
	DB	00H
	DB	076H
	DB	00H
	DB	062H
	DB	072H
	DB	065H
	DB	061H
	DB	06bH
	DB	052H
	DB	065H
	DB	06cH
	DB	061H
	DB	079H
	DB	00H
	DB	072H
	DB	065H
	DB	073H
	DB	065H
	DB	074H
	DB	052H
	DB	065H
	DB	06cH
	DB	061H
	DB	079H
	DB	00H
	ORG $+4
?qt_meta_data_qDOWriteThread@@3QBIB DD 08H		; qt_meta_data_qDOWriteThread
	DD	00H
	DD	00H
	DD	00H
	DD	06H
	DD	0eH
	DD	00H
	DD	00H
	DD	00H
	DD	00H
	DD	00H
	DD	00H
	DD	00H
	DD	04H
	DD	01H
	DD	00H
	DD	02cH
	DD	02H
	DD	06H
	DD	03H
	DD	01H
	DD	02dH
	DD	02H
	DD	06H
	DD	05H
	DD	01H
	DD	030H
	DD	02H
	DD	06H
	DD	06H
	DD	01H
	DD	033H
	DD	02H
	DD	06H
	DD	08H
	DD	00H
	DD	036H
	DD	02H
	DD	0aH
	DD	09H
	DD	00H
	DD	037H
	DD	02H
	DD	0aH
	DD	02bH
	DD	02bH
	DD	0aH
	DD	04H
	DD	02bH
	DD	0aH
	DD	04H
	DD	02bH
	DD	01H
	DD	07H
	DD	02bH
	DD	02bH
	DD	00H
CONST	ENDS
PUBLIC	?metaObject@qDOWriteThread@@UBEPBUQMetaObject@@XZ ; qDOWriteThread::metaObject
PUBLIC	?qt_metacast@qDOWriteThread@@UAEPAXPBD@Z	; qDOWriteThread::qt_metacast
PUBLIC	?qt_metacall@qDOWriteThread@@UAEHW4Call@QMetaObject@@HPAPAX@Z ; qDOWriteThread::qt_metacall
PUBLIC	?qt_static_metacall@qDOWriteThread@@CAXPAVQObject@@W4Call@QMetaObject@@HPAPAX@Z ; qDOWriteThread::qt_static_metacall
PUBLIC	?threadStarted@qDOWriteThread@@QAEXXZ		; qDOWriteThread::threadStarted
PUBLIC	?response@qDOWriteThread@@QAEXABVQString@@@Z	; qDOWriteThread::response
PUBLIC	?errorMsg@qDOWriteThread@@QAEXABVQString@@@Z	; qDOWriteThread::errorMsg
PUBLIC	?relayOpen@qDOWriteThread@@QAEX_N@Z		; qDOWriteThread::relayOpen
PUBLIC	?staticMetaObject@qDOWriteThread@@2UQMetaObject@@B ; qDOWriteThread::staticMetaObject
EXTRN	__imp_?activate@QMetaObject@@SAXPAVQObject@@PBU1@HPAPAX@Z:PROC
EXTRN	__imp_?dynamicMetaObject@QObjectData@@QBEPAUQMetaObject@@XZ:PROC
EXTRN	__imp_?qt_metacast@QObject@@UAEPAXPBD@Z:PROC
EXTRN	__imp_?qt_metacall@QObject@@UAEHW4Call@QMetaObject@@HPAPAX@Z:PROC
EXTRN	?writeDO@qDOWriteThread@@QAEXE@Z:PROC		; qDOWriteThread::writeDO
CRT$XCU	SEGMENT
??staticMetaObject$initializer$@qDOWriteThread@@2P6AXXZA@@3P6AXXZA DD FLAT:??__E?staticMetaObject@qDOWriteThread@@2UQMetaObject@@B@@YAXXZ ; ??staticMetaObject$initializer$@qDOWriteThread@@2P6AXXZA@@3P6AXXZA
CRT$XCU	ENDS
_DATA	SEGMENT
?staticMetaObject@qDOWriteThread@@2UQMetaObject@@B DB 4 DUP(00H) ; qDOWriteThread::staticMetaObject
	DD	FLAT:?qt_meta_stringdata_qDOWriteThread@@3Uqt_meta_stringdata_qDOWriteThread_t@@B
	DD	FLAT:?qt_meta_data_qDOWriteThread@@3QBIB
	DD	FLAT:?qt_static_metacall@qDOWriteThread@@CAXPAVQObject@@W4Call@QMetaObject@@HPAPAX@Z
	DD	00H
	DD	00H
_DATA	ENDS
; Function compile flags: /Ogtp
;	COMDAT ??$addressof@_N@std@@YAPA_NAA_N@Z
_TEXT	SEGMENT
__Val$ = 8						; size = 4
??$addressof@_N@std@@YAPA_NAA_N@Z PROC			; std::addressof<bool>, COMDAT
; File c:\program files (x86)\microsoft visual studio\2017\community\vc\tools\msvc\14.16.27023\include\xstddef
; Line 329
	push	ebp
	mov	ebp, esp
; Line 330
	mov	eax, DWORD PTR __Val$[ebp]
; Line 331
	pop	ebp
	ret	0
??$addressof@_N@std@@YAPA_NAA_N@Z ENDP			; std::addressof<bool>
_TEXT	ENDS
; Function compile flags: /Ogtp
;	COMDAT ??$addressof@$$CBVQString@@@std@@YAPBVQString@@ABV1@@Z
_TEXT	SEGMENT
__Val$ = 8						; size = 4
??$addressof@$$CBVQString@@@std@@YAPBVQString@@ABV1@@Z PROC ; std::addressof<QString const >, COMDAT
; File c:\program files (x86)\microsoft visual studio\2017\community\vc\tools\msvc\14.16.27023\include\xstddef
; Line 329
	push	ebp
	mov	ebp, esp
; Line 330
	mov	eax, DWORD PTR __Val$[ebp]
; Line 331
	pop	ebp
	ret	0
??$addressof@$$CBVQString@@@std@@YAPBVQString@@ABV1@@Z ENDP ; std::addressof<QString const >
_TEXT	ENDS
; Function compile flags: /Ogtp
;	COMDAT ??__E?staticMetaObject@qDOWriteThread@@2UQMetaObject@@B@@YAXXZ
text$di	SEGMENT
??__E?staticMetaObject@qDOWriteThread@@2UQMetaObject@@B@@YAXXZ PROC ; `dynamic initializer for 'qDOWriteThread::staticMetaObject'', COMDAT
; File c:\users\unm\documents\github\cacode\src\failsafec\generatedfiles\release\moc_qdowritethread.cpp
; Line 137
	mov	eax, DWORD PTR __imp_?staticMetaObject@QObject@@2UQMetaObject@@B
	mov	DWORD PTR ?staticMetaObject@qDOWriteThread@@2UQMetaObject@@B, eax
; Line 142
	ret	0
??__E?staticMetaObject@qDOWriteThread@@2UQMetaObject@@B@@YAXXZ ENDP ; `dynamic initializer for 'qDOWriteThread::staticMetaObject''
text$di	ENDS
; Function compile flags: /Ogtp
;	COMDAT ?relayOpen@qDOWriteThread@@QAEX_N@Z
_TEXT	SEGMENT
__a$ = -8						; size = 8
__t1$ = 8						; size = 1
?relayOpen@qDOWriteThread@@QAEX_N@Z PROC		; qDOWriteThread::relayOpen, COMDAT
; _this$ = ecx
; File c:\users\unm\documents\github\cacode\src\failsafec\generatedfiles\release\moc_qdowritethread.cpp
; Line 198
	push	ebp
	mov	ebp, esp
	sub	esp, 8
; File c:\program files (x86)\microsoft visual studio\2017\community\vc\tools\msvc\14.16.27023\include\xstddef
; Line 330
	lea	eax, DWORD PTR __t1$[ebp]
; File c:\users\unm\documents\github\cacode\src\failsafec\generatedfiles\release\moc_qdowritethread.cpp
; Line 199
	mov	DWORD PTR __a$[ebp], 0
; File c:\program files (x86)\microsoft visual studio\2017\community\vc\tools\msvc\14.16.27023\include\xstddef
; Line 330
	mov	DWORD PTR __a$[ebp+4], eax
; File c:\users\unm\documents\github\cacode\src\failsafec\generatedfiles\release\moc_qdowritethread.cpp
; Line 200
	lea	eax, DWORD PTR __a$[ebp]
	push	eax
	push	3
	push	OFFSET ?staticMetaObject@qDOWriteThread@@2UQMetaObject@@B ; qDOWriteThread::staticMetaObject
	push	ecx
	call	DWORD PTR __imp_?activate@QMetaObject@@SAXPAVQObject@@PBU1@HPAPAX@Z
	add	esp, 16					; 00000010H
; Line 201
	mov	esp, ebp
	pop	ebp
	ret	4
?relayOpen@qDOWriteThread@@QAEX_N@Z ENDP		; qDOWriteThread::relayOpen
_TEXT	ENDS
; Function compile flags: /Ogtp
;	COMDAT ?errorMsg@qDOWriteThread@@QAEXABVQString@@@Z
_TEXT	SEGMENT
__a$ = -8						; size = 8
__t1$ = 8						; size = 4
?errorMsg@qDOWriteThread@@QAEXABVQString@@@Z PROC	; qDOWriteThread::errorMsg, COMDAT
; _this$ = ecx
; File c:\users\unm\documents\github\cacode\src\failsafec\generatedfiles\release\moc_qdowritethread.cpp
; Line 191
	push	ebp
	mov	ebp, esp
	sub	esp, 8
; File c:\program files (x86)\microsoft visual studio\2017\community\vc\tools\msvc\14.16.27023\include\xstddef
; Line 330
	mov	eax, DWORD PTR __t1$[ebp]
	mov	DWORD PTR __a$[ebp+4], eax
; File c:\users\unm\documents\github\cacode\src\failsafec\generatedfiles\release\moc_qdowritethread.cpp
; Line 193
	lea	eax, DWORD PTR __a$[ebp]
	push	eax
	push	2
	push	OFFSET ?staticMetaObject@qDOWriteThread@@2UQMetaObject@@B ; qDOWriteThread::staticMetaObject
	push	ecx
	mov	DWORD PTR __a$[ebp], 0
	call	DWORD PTR __imp_?activate@QMetaObject@@SAXPAVQObject@@PBU1@HPAPAX@Z
	add	esp, 16					; 00000010H
; Line 194
	mov	esp, ebp
	pop	ebp
	ret	4
?errorMsg@qDOWriteThread@@QAEXABVQString@@@Z ENDP	; qDOWriteThread::errorMsg
_TEXT	ENDS
; Function compile flags: /Ogtp
;	COMDAT ?response@qDOWriteThread@@QAEXABVQString@@@Z
_TEXT	SEGMENT
__a$ = -8						; size = 8
__t1$ = 8						; size = 4
?response@qDOWriteThread@@QAEXABVQString@@@Z PROC	; qDOWriteThread::response, COMDAT
; _this$ = ecx
; File c:\users\unm\documents\github\cacode\src\failsafec\generatedfiles\release\moc_qdowritethread.cpp
; Line 184
	push	ebp
	mov	ebp, esp
	sub	esp, 8
; File c:\program files (x86)\microsoft visual studio\2017\community\vc\tools\msvc\14.16.27023\include\xstddef
; Line 330
	mov	eax, DWORD PTR __t1$[ebp]
	mov	DWORD PTR __a$[ebp+4], eax
; File c:\users\unm\documents\github\cacode\src\failsafec\generatedfiles\release\moc_qdowritethread.cpp
; Line 186
	lea	eax, DWORD PTR __a$[ebp]
	push	eax
	push	1
	push	OFFSET ?staticMetaObject@qDOWriteThread@@2UQMetaObject@@B ; qDOWriteThread::staticMetaObject
	push	ecx
	mov	DWORD PTR __a$[ebp], 0
	call	DWORD PTR __imp_?activate@QMetaObject@@SAXPAVQObject@@PBU1@HPAPAX@Z
	add	esp, 16					; 00000010H
; Line 187
	mov	esp, ebp
	pop	ebp
	ret	4
?response@qDOWriteThread@@QAEXABVQString@@@Z ENDP	; qDOWriteThread::response
_TEXT	ENDS
; Function compile flags: /Ogtp
;	COMDAT ?threadStarted@qDOWriteThread@@QAEXXZ
_TEXT	SEGMENT
?threadStarted@qDOWriteThread@@QAEXXZ PROC		; qDOWriteThread::threadStarted, COMDAT
; _this$ = ecx
; File c:\users\unm\documents\github\cacode\src\failsafec\generatedfiles\release\moc_qdowritethread.cpp
; Line 179
	push	0
	push	0
	push	OFFSET ?staticMetaObject@qDOWriteThread@@2UQMetaObject@@B ; qDOWriteThread::staticMetaObject
	push	ecx
	call	DWORD PTR __imp_?activate@QMetaObject@@SAXPAVQObject@@PBU1@HPAPAX@Z
	add	esp, 16					; 00000010H
; Line 180
	ret	0
?threadStarted@qDOWriteThread@@QAEXXZ ENDP		; qDOWriteThread::threadStarted
_TEXT	ENDS
; Function compile flags: /Ogtp
;	COMDAT ?resetRelay@qDOWriteThread@@QAEXXZ
_TEXT	SEGMENT
?resetRelay@qDOWriteThread@@QAEXXZ PROC			; qDOWriteThread::resetRelay, COMDAT
; _this$ = ecx
; File c:\users\unm\documents\github\cacode\src\failsafec\qdowritethread.h
; Line 28
	push	0
	call	?writeDO@qDOWriteThread@@QAEXE@Z	; qDOWriteThread::writeDO
; Line 29
	ret	0
?resetRelay@qDOWriteThread@@QAEXXZ ENDP			; qDOWriteThread::resetRelay
_TEXT	ENDS
; Function compile flags: /Ogtp
;	COMDAT ?breakRelay@qDOWriteThread@@QAEXXZ
_TEXT	SEGMENT
?breakRelay@qDOWriteThread@@QAEXXZ PROC			; qDOWriteThread::breakRelay, COMDAT
; _this$ = ecx
; File c:\users\unm\documents\github\cacode\src\failsafec\qdowritethread.h
; Line 24
	push	1
	call	?writeDO@qDOWriteThread@@QAEXE@Z	; qDOWriteThread::writeDO
; Line 25
	ret	0
?breakRelay@qDOWriteThread@@QAEXXZ ENDP			; qDOWriteThread::breakRelay
_TEXT	ENDS
; Function compile flags: /Ogtp
;	COMDAT ?qt_static_metacall@qDOWriteThread@@CAXPAVQObject@@W4Call@QMetaObject@@HPAPAX@Z
_TEXT	SEGMENT
__o$ = 8						; size = 4
__c$ = 12						; size = 4
__id$ = 16						; size = 4
__a$ = 20						; size = 4
?qt_static_metacall@qDOWriteThread@@CAXPAVQObject@@W4Call@QMetaObject@@HPAPAX@Z PROC ; qDOWriteThread::qt_static_metacall, COMDAT
; File c:\users\unm\documents\github\cacode\src\failsafec\generatedfiles\release\moc_qdowritethread.cpp
; Line 90
	push	ebp
	mov	ebp, esp
; Line 91
	mov	eax, DWORD PTR __c$[ebp]
	test	eax, eax
	jne	SHORT $LN4@qt_static_
; Line 94
	mov	eax, DWORD PTR __id$[ebp]
	cmp	eax, 5
	ja	$LN17@qt_static_
	jmp	DWORD PTR $LN27@qt_static_[eax*4]
$LN6@qt_static_:
; Line 179
	mov	DWORD PTR __a$[ebp], 0
	mov	DWORD PTR __id$[ebp], 0
	mov	DWORD PTR __c$[ebp], OFFSET ?staticMetaObject@qDOWriteThread@@2UQMetaObject@@B ; qDOWriteThread::staticMetaObject
; Line 134
	pop	ebp
; Line 179
	jmp	DWORD PTR __imp_?activate@QMetaObject@@SAXPAVQObject@@PBU1@HPAPAX@Z
$LN7@qt_static_:
; Line 96
	mov	eax, DWORD PTR __a$[ebp]
	mov	ecx, DWORD PTR __o$[ebp]
	push	DWORD PTR [eax+4]
	call	?response@qDOWriteThread@@QAEXABVQString@@@Z ; qDOWriteThread::response
; Line 134
	pop	ebp
	ret	0
$LN8@qt_static_:
; Line 97
	mov	eax, DWORD PTR __a$[ebp]
	mov	ecx, DWORD PTR __o$[ebp]
	push	DWORD PTR [eax+4]
	call	?errorMsg@qDOWriteThread@@QAEXABVQString@@@Z ; qDOWriteThread::errorMsg
; Line 134
	pop	ebp
	ret	0
$LN9@qt_static_:
; Line 98
	mov	eax, DWORD PTR __a$[ebp]
	mov	ecx, DWORD PTR __o$[ebp]
	mov	eax, DWORD PTR [eax+4]
	movzx	eax, BYTE PTR [eax]
	push	eax
	call	?relayOpen@qDOWriteThread@@QAEX_N@Z	; qDOWriteThread::relayOpen
; Line 134
	pop	ebp
	ret	0
$LN10@qt_static_:
; File c:\users\unm\documents\github\cacode\src\failsafec\qdowritethread.h
; Line 24
	mov	ecx, DWORD PTR __o$[ebp]
	push	1
	call	?writeDO@qDOWriteThread@@QAEXE@Z	; qDOWriteThread::writeDO
; File c:\users\unm\documents\github\cacode\src\failsafec\generatedfiles\release\moc_qdowritethread.cpp
; Line 134
	pop	ebp
	ret	0
$LN11@qt_static_:
; File c:\users\unm\documents\github\cacode\src\failsafec\qdowritethread.h
; Line 28
	mov	ecx, DWORD PTR __o$[ebp]
	push	0
	call	?writeDO@qDOWriteThread@@QAEXE@Z	; qDOWriteThread::writeDO
; File c:\users\unm\documents\github\cacode\src\failsafec\generatedfiles\release\moc_qdowritethread.cpp
; Line 134
	pop	ebp
	ret	0
$LN4@qt_static_:
; Line 103
	cmp	eax, 10					; 0000000aH
	jne	SHORT $LN17@qt_static_
; Line 104
	mov	eax, DWORD PTR __a$[ebp]
	mov	ecx, DWORD PTR [eax]
; Line 107
	mov	eax, DWORD PTR [eax+4]
	mov	eax, DWORD PTR [eax]
	cmp	eax, OFFSET ?threadStarted@qDOWriteThread@@QAEXXZ ; qDOWriteThread::threadStarted
	jne	SHORT $LN14@qt_static_
; Line 108
	mov	DWORD PTR [ecx], 0
; Line 134
	pop	ebp
	ret	0
$LN14@qt_static_:
; Line 114
	cmp	eax, OFFSET ?response@qDOWriteThread@@QAEXABVQString@@@Z ; qDOWriteThread::response
	jne	SHORT $LN15@qt_static_
; Line 115
	mov	DWORD PTR [ecx], 1
; Line 134
	pop	ebp
	ret	0
$LN15@qt_static_:
; Line 121
	cmp	eax, OFFSET ?errorMsg@qDOWriteThread@@QAEXABVQString@@@Z ; qDOWriteThread::errorMsg
	jne	SHORT $LN16@qt_static_
; Line 122
	mov	DWORD PTR [ecx], 2
; Line 134
	pop	ebp
	ret	0
$LN16@qt_static_:
; Line 128
	cmp	eax, OFFSET ?relayOpen@qDOWriteThread@@QAEX_N@Z ; qDOWriteThread::relayOpen
	jne	SHORT $LN17@qt_static_
; Line 129
	mov	DWORD PTR [ecx], 3
$LN17@qt_static_:
; Line 134
	pop	ebp
	ret	0
$LN27@qt_static_:
	DD	$LN6@qt_static_
	DD	$LN7@qt_static_
	DD	$LN8@qt_static_
	DD	$LN9@qt_static_
	DD	$LN10@qt_static_
	DD	$LN11@qt_static_
?qt_static_metacall@qDOWriteThread@@CAXPAVQObject@@W4Call@QMetaObject@@HPAPAX@Z ENDP ; qDOWriteThread::qt_static_metacall
_TEXT	ENDS
; Function compile flags: /Ogtp
;	COMDAT ?qt_metacall@qDOWriteThread@@UAEHW4Call@QMetaObject@@HPAPAX@Z
_TEXT	SEGMENT
_this$1$ = -4						; size = 4
__c$ = 8						; size = 4
__id$ = 12						; size = 4
__a$ = 16						; size = 4
?qt_metacall@qDOWriteThread@@UAEHW4Call@QMetaObject@@HPAPAX@Z PROC ; qDOWriteThread::qt_metacall, COMDAT
; _this$ = ecx
; File c:\users\unm\documents\github\cacode\src\failsafec\generatedfiles\release\moc_qdowritethread.cpp
; Line 160
	push	ebp
	mov	ebp, esp
	push	ecx
	push	ebx
; Line 161
	mov	ebx, DWORD PTR __a$[ebp]
	mov	eax, ecx
	push	esi
	push	edi
	mov	edi, DWORD PTR __c$[ebp]
	push	ebx
	push	DWORD PTR __id$[ebp]
	mov	DWORD PTR _this$1$[ebp], eax
	push	edi
	call	DWORD PTR __imp_?qt_metacall@QObject@@UAEHW4Call@QMetaObject@@HPAPAX@Z
	mov	esi, eax
; Line 162
	test	esi, esi
	js	SHORT $LN1@qt_metacal
; Line 164
	test	edi, edi
	jne	SHORT $LN3@qt_metacal
; Line 165
	cmp	esi, 6
	jge	SHORT $LN7@qt_metacal
; Line 166
	push	ebx
	push	esi
	push	edi
	push	DWORD PTR _this$1$[ebp]
	call	?qt_static_metacall@qDOWriteThread@@CAXPAVQObject@@W4Call@QMetaObject@@HPAPAX@Z ; qDOWriteThread::qt_static_metacall
	add	esp, 16					; 00000010H
; Line 173
	sub	esi, 6
	mov	eax, esi
	pop	edi
; Line 174
	pop	esi
	pop	ebx
	mov	esp, ebp
	pop	ebp
	ret	12					; 0000000cH
$LN3@qt_metacal:
; Line 168
	cmp	edi, 12					; 0000000cH
	jne	SHORT $LN6@qt_metacal
; Line 169
	cmp	esi, 6
	jge	SHORT $LN7@qt_metacal
; Line 170
	mov	eax, DWORD PTR [ebx]
	mov	DWORD PTR [eax], -1
$LN7@qt_metacal:
; Line 173
	sub	esi, 6
$LN6@qt_metacal:
	mov	eax, esi
$LN1@qt_metacal:
	pop	edi
; Line 174
	pop	esi
	pop	ebx
	mov	esp, ebp
	pop	ebp
	ret	12					; 0000000cH
?qt_metacall@qDOWriteThread@@UAEHW4Call@QMetaObject@@HPAPAX@Z ENDP ; qDOWriteThread::qt_metacall
_TEXT	ENDS
; Function compile flags: /Ogtp
;	COMDAT ?qt_metacast@qDOWriteThread@@UAEPAXPBD@Z
_TEXT	SEGMENT
__clname$ = 8						; size = 4
?qt_metacast@qDOWriteThread@@UAEPAXPBD@Z PROC		; qDOWriteThread::qt_metacast, COMDAT
; _this$ = ecx
; File c:\users\unm\documents\github\cacode\src\failsafec\generatedfiles\release\moc_qdowritethread.cpp
; Line 152
	push	ebp
	mov	ebp, esp
	push	esi
; Line 153
	mov	esi, DWORD PTR __clname$[ebp]
	push	edi
	mov	edi, ecx
	test	esi, esi
	jne	SHORT $LN2@qt_metacas
	pop	edi
	xor	eax, eax
; Line 157
	pop	esi
	pop	ebp
	ret	4
$LN2@qt_metacas:
; Line 154
	mov	eax, OFFSET ?qt_meta_stringdata_qDOWriteThread@@3Uqt_meta_stringdata_qDOWriteThread_t@@B+160
	mov	ecx, esi
	npad	3
$LL5@qt_metacas:
	mov	dl, BYTE PTR [ecx]
	cmp	dl, BYTE PTR [eax]
	jne	SHORT $LN6@qt_metacas
	test	dl, dl
	je	SHORT $LN7@qt_metacas
	mov	dl, BYTE PTR [ecx+1]
	cmp	dl, BYTE PTR [eax+1]
	jne	SHORT $LN6@qt_metacas
	add	ecx, 2
	add	eax, 2
	test	dl, dl
	jne	SHORT $LL5@qt_metacas
$LN7@qt_metacas:
	xor	eax, eax
	jmp	SHORT $LN8@qt_metacas
$LN6@qt_metacas:
	sbb	eax, eax
	or	eax, 1
$LN8@qt_metacas:
	test	eax, eax
	jne	SHORT $LN3@qt_metacas
; Line 155
	mov	eax, edi
	pop	edi
; Line 157
	pop	esi
	pop	ebp
	ret	4
$LN3@qt_metacas:
; Line 156
	push	esi
	mov	ecx, edi
	call	DWORD PTR __imp_?qt_metacast@QObject@@UAEPAXPBD@Z
	pop	edi
; Line 157
	pop	esi
	pop	ebp
	ret	4
?qt_metacast@qDOWriteThread@@UAEPAXPBD@Z ENDP		; qDOWriteThread::qt_metacast
_TEXT	ENDS
; Function compile flags: /Ogtp
;	COMDAT ?metaObject@qDOWriteThread@@UBEPBUQMetaObject@@XZ
_TEXT	SEGMENT
?metaObject@qDOWriteThread@@UBEPBUQMetaObject@@XZ PROC	; qDOWriteThread::metaObject, COMDAT
; _this$ = ecx
; File c:\users\unm\documents\github\cacode\src\failsafec\generatedfiles\release\moc_qdowritethread.cpp
; Line 148
	mov	ecx, DWORD PTR [ecx+4]
	cmp	DWORD PTR [ecx+24], 0
	je	SHORT $LN3@metaObject
	jmp	DWORD PTR __imp_?dynamicMetaObject@QObjectData@@QBEPAUQMetaObject@@XZ
$LN3@metaObject:
	mov	eax, OFFSET ?staticMetaObject@qDOWriteThread@@2UQMetaObject@@B ; qDOWriteThread::staticMetaObject
; Line 149
	ret	0
?metaObject@qDOWriteThread@@UBEPBUQMetaObject@@XZ ENDP	; qDOWriteThread::metaObject
_TEXT	ENDS
; Function compile flags: /Ogtp
;	COMDAT ??C?$QScopedPointer@VQObjectData@@U?$QScopedPointerDeleter@VQObjectData@@@@@@QBEPAVQObjectData@@XZ
_TEXT	SEGMENT
??C?$QScopedPointer@VQObjectData@@U?$QScopedPointerDeleter@VQObjectData@@@@@@QBEPAVQObjectData@@XZ PROC ; QScopedPointer<QObjectData,QScopedPointerDeleter<QObjectData> >::operator->, COMDAT
; _this$ = ecx
; File c:\qt\5.13.1\msvc2017\include\qtcore\qscopedpointer.h
; Line 118
	mov	eax, DWORD PTR [ecx]
; Line 119
	ret	0
??C?$QScopedPointer@VQObjectData@@U?$QScopedPointerDeleter@VQObjectData@@@@@@QBEPAVQObjectData@@XZ ENDP ; QScopedPointer<QObjectData,QScopedPointerDeleter<QObjectData> >::operator->
_TEXT	ENDS
END
