; Listing generated by Microsoft (R) Optimizing Compiler Version 19.16.27032.1 

	TITLE	C:\Users\unm\Documents\GitHub\caCode\src\sendWaveformC\Release\moc\moc_sendWaveformC.cpp
	.686P
	.XMM
	include listing.inc
	.model	flat

INCLUDELIB MSVCRT
INCLUDELIB OLDNAMES

EXTRN	__imp_?staticMetaObject@QDialog@@2UQMetaObject@@B:BYTE
CONST	SEGMENT
?qt_meta_stringdata_sendWaveformC@@3Uqt_meta_stringdata_sendWaveformC_t@@B DD 0ffffffffH ; qt_meta_stringdata_sendWaveformC
	DD	0dH
	DD	00H
	DD	0a0H
	DD	0ffffffffH
	DD	04H
	DD	00H
	DD	09eH
	DD	0ffffffffH
	DD	00H
	DD	00H
	DD	093H
	DD	0ffffffffH
	DD	01H
	DD	00H
	DD	084H
	DD	0ffffffffH
	DD	09H
	DD	00H
	DD	076H
	DD	0ffffffffH
	DD	09H
	DD	00H
	DD	070H
	DD	0ffffffffH
	DD	0cH
	DD	00H
	DD	06aH
	DD	0ffffffffH
	DD	015H
	DD	00H
	DD	067H
	DD	0ffffffffH
	DD	0aH
	DD	00H
	DD	06dH
	DD	0ffffffffH
	DD	03H
	DD	00H
	DD	068H
	DB	073H
	DB	065H
	DB	06eH
	DB	064H
	DB	057H
	DB	061H
	DB	076H
	DB	065H
	DB	066H
	DB	06fH
	DB	072H
	DB	06dH
	DB	043H
	DB	00H
	DB	064H
	DB	06fH
	DB	06eH
	DB	065H
	DB	00H
	DB	00H
	DB	072H
	DB	00H
	DB	074H
	DB	065H
	DB	073H
	DB	074H
	DB	049H
	DB	073H
	DB	070H
	DB	070H
	DB	061H
	DB	00H
	DB	074H
	DB	065H
	DB	073H
	DB	074H
	DB	049H
	DB	073H
	DB	070H
	DB	074H
	DB	061H
	DB	00H
	DB	063H
	DB	068H
	DB	065H
	DB	063H
	DB	06bH
	DB	056H
	DB	06fH
	DB	06cH
	DB	074H
	DB	061H
	DB	067H
	DB	065H
	DB	00H
	DB	063H
	DB	075H
	DB	072H
	DB	072H
	DB	065H
	DB	06eH
	DB	074H
	DB	054H
	DB	068H
	DB	072H
	DB	065H
	DB	061H
	DB	064H
	DB	046H
	DB	069H
	DB	06eH
	DB	069H
	DB	073H
	DB	068H
	DB	065H
	DB	064H
	DB	00H
	DB	073H
	DB	068H
	DB	06fH
	DB	077H
	DB	045H
	DB	072H
	DB	072H
	DB	04dH
	DB	073H
	DB	067H
	DB	00H
	DB	06dH
	DB	073H
	DB	067H
	DB	00H
	ORG $+4
?qt_meta_data_sendWaveformC@@3QBIB DD 08H		; qt_meta_data_sendWaveformC
	DD	00H
	DD	00H
	DD	00H
	DD	06H
	DD	0eH
	DD	00H
	DD	00H
	DD	00H
	DD	00H
	DD	00H
	DD	00H
	DD	00H
	DD	00H
	DD	01H
	DD	01H
	DD	02cH
	DD	02H
	DD	0aH
	DD	04H
	DD	00H
	DD	02fH
	DD	02H
	DD	08H
	DD	05H
	DD	00H
	DD	030H
	DD	02H
	DD	08H
	DD	06H
	DD	00H
	DD	031H
	DD	02H
	DD	08H
	DD	07H
	DD	00H
	DD	032H
	DD	02H
	DD	08H
	DD	08H
	DD	01H
	DD	033H
	DD	02H
	DD	08H
	DD	02bH
	DD	02H
	DD	03H
	DD	02bH
	DD	02bH
	DD	02bH
	DD	02bH
	DD	02bH
	DD	0aH
	DD	09H
	DD	00H
CONST	ENDS
PUBLIC	?metaObject@sendWaveformC@@UBEPBUQMetaObject@@XZ ; sendWaveformC::metaObject
PUBLIC	?qt_metacast@sendWaveformC@@UAEPAXPBD@Z		; sendWaveformC::qt_metacast
PUBLIC	?qt_metacall@sendWaveformC@@UAEHW4Call@QMetaObject@@HPAPAX@Z ; sendWaveformC::qt_metacall
PUBLIC	?qt_static_metacall@sendWaveformC@@CAXPAVQObject@@W4Call@QMetaObject@@HPAPAX@Z ; sendWaveformC::qt_static_metacall
PUBLIC	?staticMetaObject@sendWaveformC@@2UQMetaObject@@B ; sendWaveformC::staticMetaObject
EXTRN	__imp_??0QString@@QAE@ABV0@@Z:PROC
EXTRN	__imp_?dynamicMetaObject@QObjectData@@QBEPAUQMetaObject@@XZ:PROC
EXTRN	__imp_?qt_metacast@QDialog@@UAEPAXPBD@Z:PROC
EXTRN	__imp_?qt_metacall@QDialog@@UAEHW4Call@QMetaObject@@HPAPAX@Z:PROC
EXTRN	?testIsppa@sendWaveformC@@AAEXXZ:PROC		; sendWaveformC::testIsppa
EXTRN	?testIspta@sendWaveformC@@AAEXXZ:PROC		; sendWaveformC::testIspta
EXTRN	?checkVoltage@sendWaveformC@@AAEXXZ:PROC	; sendWaveformC::checkVoltage
EXTRN	?currentThreadFinished@sendWaveformC@@AAEXXZ:PROC ; sendWaveformC::currentThreadFinished
EXTRN	?showErrMsg@sendWaveformC@@AAEXVQString@@@Z:PROC ; sendWaveformC::showErrMsg
CRT$XCU	SEGMENT
??staticMetaObject$initializer$@sendWaveformC@@2P6AXXZA@@3P6AXXZA DD FLAT:??__E?staticMetaObject@sendWaveformC@@2UQMetaObject@@B@@YAXXZ ; ??staticMetaObject$initializer$@sendWaveformC@@2P6AXXZA@@3P6AXXZA
CRT$XCU	ENDS
_DATA	SEGMENT
?staticMetaObject@sendWaveformC@@2UQMetaObject@@B DB 4 DUP(00H) ; sendWaveformC::staticMetaObject
	DD	FLAT:?qt_meta_stringdata_sendWaveformC@@3Uqt_meta_stringdata_sendWaveformC_t@@B
	DD	FLAT:?qt_meta_data_sendWaveformC@@3QBIB
	DD	FLAT:?qt_static_metacall@sendWaveformC@@CAXPAVQObject@@W4Call@QMetaObject@@HPAPAX@Z
	DD	00H
	DD	00H
_DATA	ENDS
; Function compile flags: /Ogtp
;	COMDAT ??__E?staticMetaObject@sendWaveformC@@2UQMetaObject@@B@@YAXXZ
text$di	SEGMENT
??__E?staticMetaObject@sendWaveformC@@2UQMetaObject@@B@@YAXXZ PROC ; `dynamic initializer for 'sendWaveformC::staticMetaObject'', COMDAT
; File c:\users\unm\documents\github\cacode\src\sendwaveformc\release\moc\moc_sendwaveformc.cpp
; Line 103
	mov	eax, DWORD PTR __imp_?staticMetaObject@QDialog@@2UQMetaObject@@B
	mov	DWORD PTR ?staticMetaObject@sendWaveformC@@2UQMetaObject@@B, eax
; Line 108
	ret	0
??__E?staticMetaObject@sendWaveformC@@2UQMetaObject@@B@@YAXXZ ENDP ; `dynamic initializer for 'sendWaveformC::staticMetaObject''
text$di	ENDS
; Function compile flags: /Ogtp
;	COMDAT ?qt_static_metacall@sendWaveformC@@CAXPAVQObject@@W4Call@QMetaObject@@HPAPAX@Z
_TEXT	SEGMENT
__o$ = 8						; size = 4
__c$ = 12						; size = 4
__id$ = 16						; size = 4
__a$ = 20						; size = 4
?qt_static_metacall@sendWaveformC@@CAXPAVQObject@@W4Call@QMetaObject@@HPAPAX@Z PROC ; sendWaveformC::qt_static_metacall, COMDAT
; File c:\users\unm\documents\github\cacode\src\sendwaveformc\release\moc\moc_sendwaveformc.cpp
; Line 86
	push	ebp
	mov	ebp, esp
; Line 87
	cmp	DWORD PTR __c$[ebp], 0
	jne	SHORT $LN11@qt_static_
; Line 90
	mov	eax, DWORD PTR __id$[ebp]
	cmp	eax, 5
	ja	SHORT $LN11@qt_static_
	jmp	DWORD PTR $LN17@qt_static_[eax*4]
$LN5@qt_static_:
; Line 91
	mov	eax, DWORD PTR __a$[ebp]
	mov	ecx, DWORD PTR __o$[ebp]
	mov	eax, DWORD PTR [eax+4]
	mov	edx, DWORD PTR [ecx]
	push	DWORD PTR [eax]
	call	DWORD PTR [edx+188]
; Line 100
	pop	ebp
	ret	0
$LN6@qt_static_:
; Line 92
	mov	ecx, DWORD PTR __o$[ebp]
; Line 100
	pop	ebp
; Line 92
	jmp	?testIsppa@sendWaveformC@@AAEXXZ	; sendWaveformC::testIsppa
$LN7@qt_static_:
; Line 93
	mov	ecx, DWORD PTR __o$[ebp]
; Line 100
	pop	ebp
; Line 93
	jmp	?testIspta@sendWaveformC@@AAEXXZ	; sendWaveformC::testIspta
$LN8@qt_static_:
; Line 94
	mov	ecx, DWORD PTR __o$[ebp]
; Line 100
	pop	ebp
; Line 94
	jmp	?checkVoltage@sendWaveformC@@AAEXXZ	; sendWaveformC::checkVoltage
$LN9@qt_static_:
; Line 95
	mov	ecx, DWORD PTR __o$[ebp]
; Line 100
	pop	ebp
; Line 95
	jmp	?currentThreadFinished@sendWaveformC@@AAEXXZ ; sendWaveformC::currentThreadFinished
$LN10@qt_static_:
; Line 96
	mov	eax, DWORD PTR __a$[ebp]
	push	ecx
	mov	ecx, esp
	push	DWORD PTR [eax+4]
	call	DWORD PTR __imp_??0QString@@QAE@ABV0@@Z
	mov	ecx, DWORD PTR __o$[ebp]
	call	?showErrMsg@sendWaveformC@@AAEXVQString@@@Z ; sendWaveformC::showErrMsg
$LN11@qt_static_:
; Line 100
	pop	ebp
	ret	0
	npad	2
$LN17@qt_static_:
	DD	$LN5@qt_static_
	DD	$LN6@qt_static_
	DD	$LN7@qt_static_
	DD	$LN8@qt_static_
	DD	$LN9@qt_static_
	DD	$LN10@qt_static_
?qt_static_metacall@sendWaveformC@@CAXPAVQObject@@W4Call@QMetaObject@@HPAPAX@Z ENDP ; sendWaveformC::qt_static_metacall
_TEXT	ENDS
; Function compile flags: /Ogtp
;	COMDAT ?qt_metacall@sendWaveformC@@UAEHW4Call@QMetaObject@@HPAPAX@Z
_TEXT	SEGMENT
_this$1$ = -4						; size = 4
__c$ = 8						; size = 4
__id$ = 12						; size = 4
__a$ = 16						; size = 4
?qt_metacall@sendWaveformC@@UAEHW4Call@QMetaObject@@HPAPAX@Z PROC ; sendWaveformC::qt_metacall, COMDAT
; _this$ = ecx
; File c:\users\unm\documents\github\cacode\src\sendwaveformc\release\moc\moc_sendwaveformc.cpp
; Line 126
	push	ebp
	mov	ebp, esp
	push	ecx
	push	ebx
; Line 127
	mov	ebx, DWORD PTR __a$[ebp]
	mov	eax, ecx
	push	esi
	push	edi
	mov	edi, DWORD PTR __c$[ebp]
	push	ebx
	push	DWORD PTR __id$[ebp]
	mov	DWORD PTR _this$1$[ebp], eax
	push	edi
	call	DWORD PTR __imp_?qt_metacall@QDialog@@UAEHW4Call@QMetaObject@@HPAPAX@Z
	mov	esi, eax
; Line 128
	test	esi, esi
	js	SHORT $LN1@qt_metacal
; Line 130
	test	edi, edi
	jne	SHORT $LN3@qt_metacal
; Line 131
	cmp	esi, 6
	jge	SHORT $LN7@qt_metacal
; Line 132
	push	ebx
	push	esi
	push	edi
	push	DWORD PTR _this$1$[ebp]
	call	?qt_static_metacall@sendWaveformC@@CAXPAVQObject@@W4Call@QMetaObject@@HPAPAX@Z ; sendWaveformC::qt_static_metacall
	add	esp, 16					; 00000010H
; Line 139
	sub	esi, 6
	mov	eax, esi
	pop	edi
; Line 140
	pop	esi
	pop	ebx
	mov	esp, ebp
	pop	ebp
	ret	12					; 0000000cH
$LN3@qt_metacal:
; Line 134
	cmp	edi, 12					; 0000000cH
	jne	SHORT $LN6@qt_metacal
; Line 135
	cmp	esi, 6
	jge	SHORT $LN7@qt_metacal
; Line 136
	mov	eax, DWORD PTR [ebx]
	mov	DWORD PTR [eax], -1
$LN7@qt_metacal:
; Line 139
	sub	esi, 6
$LN6@qt_metacal:
	mov	eax, esi
$LN1@qt_metacal:
	pop	edi
; Line 140
	pop	esi
	pop	ebx
	mov	esp, ebp
	pop	ebp
	ret	12					; 0000000cH
?qt_metacall@sendWaveformC@@UAEHW4Call@QMetaObject@@HPAPAX@Z ENDP ; sendWaveformC::qt_metacall
_TEXT	ENDS
; Function compile flags: /Ogtp
;	COMDAT ?qt_metacast@sendWaveformC@@UAEPAXPBD@Z
_TEXT	SEGMENT
__clname$ = 8						; size = 4
?qt_metacast@sendWaveformC@@UAEPAXPBD@Z PROC		; sendWaveformC::qt_metacast, COMDAT
; _this$ = ecx
; File c:\users\unm\documents\github\cacode\src\sendwaveformc\release\moc\moc_sendwaveformc.cpp
; Line 118
	push	ebp
	mov	ebp, esp
	push	esi
; Line 119
	mov	esi, DWORD PTR __clname$[ebp]
	push	edi
	mov	edi, ecx
	test	esi, esi
	jne	SHORT $LN2@qt_metacas
	pop	edi
	xor	eax, eax
; Line 123
	pop	esi
	pop	ebp
	ret	4
$LN2@qt_metacas:
; Line 120
	mov	eax, OFFSET ?qt_meta_stringdata_sendWaveformC@@3Uqt_meta_stringdata_sendWaveformC_t@@B+160
	mov	ecx, esi
	npad	3
$LL5@qt_metacas:
	mov	dl, BYTE PTR [ecx]
	cmp	dl, BYTE PTR [eax]
	jne	SHORT $LN6@qt_metacas
	test	dl, dl
	je	SHORT $LN7@qt_metacas
	mov	dl, BYTE PTR [ecx+1]
	cmp	dl, BYTE PTR [eax+1]
	jne	SHORT $LN6@qt_metacas
	add	ecx, 2
	add	eax, 2
	test	dl, dl
	jne	SHORT $LL5@qt_metacas
$LN7@qt_metacas:
	xor	eax, eax
	jmp	SHORT $LN8@qt_metacas
$LN6@qt_metacas:
	sbb	eax, eax
	or	eax, 1
$LN8@qt_metacas:
	test	eax, eax
	jne	SHORT $LN3@qt_metacas
; Line 121
	mov	eax, edi
	pop	edi
; Line 123
	pop	esi
	pop	ebp
	ret	4
$LN3@qt_metacas:
; Line 122
	push	esi
	mov	ecx, edi
	call	DWORD PTR __imp_?qt_metacast@QDialog@@UAEPAXPBD@Z
	pop	edi
; Line 123
	pop	esi
	pop	ebp
	ret	4
?qt_metacast@sendWaveformC@@UAEPAXPBD@Z ENDP		; sendWaveformC::qt_metacast
_TEXT	ENDS
; Function compile flags: /Ogtp
;	COMDAT ?metaObject@sendWaveformC@@UBEPBUQMetaObject@@XZ
_TEXT	SEGMENT
?metaObject@sendWaveformC@@UBEPBUQMetaObject@@XZ PROC	; sendWaveformC::metaObject, COMDAT
; _this$ = ecx
; File c:\users\unm\documents\github\cacode\src\sendwaveformc\release\moc\moc_sendwaveformc.cpp
; Line 114
	mov	ecx, DWORD PTR [ecx+4]
	cmp	DWORD PTR [ecx+24], 0
	je	SHORT $LN3@metaObject
	jmp	DWORD PTR __imp_?dynamicMetaObject@QObjectData@@QBEPAUQMetaObject@@XZ
$LN3@metaObject:
	mov	eax, OFFSET ?staticMetaObject@sendWaveformC@@2UQMetaObject@@B ; sendWaveformC::staticMetaObject
; Line 115
	ret	0
?metaObject@sendWaveformC@@UBEPBUQMetaObject@@XZ ENDP	; sendWaveformC::metaObject
_TEXT	ENDS
; Function compile flags: /Ogtp
;	COMDAT ??C?$QScopedPointer@VQObjectData@@U?$QScopedPointerDeleter@VQObjectData@@@@@@QBEPAVQObjectData@@XZ
_TEXT	SEGMENT
??C?$QScopedPointer@VQObjectData@@U?$QScopedPointerDeleter@VQObjectData@@@@@@QBEPAVQObjectData@@XZ PROC ; QScopedPointer<QObjectData,QScopedPointerDeleter<QObjectData> >::operator->, COMDAT
; _this$ = ecx
; File c:\qt\5.13.1\msvc2017\include\qtcore\qscopedpointer.h
; Line 118
	mov	eax, DWORD PTR [ecx]
; Line 119
	ret	0
??C?$QScopedPointer@VQObjectData@@U?$QScopedPointerDeleter@VQObjectData@@@@@@QBEPAVQObjectData@@XZ ENDP ; QScopedPointer<QObjectData,QScopedPointerDeleter<QObjectData> >::operator->
_TEXT	ENDS
END
